(dp1
S''
c__builtin__
set
p2
((lp3
I1
aI2
aI3
aI4
aI5
aI6
aI7
aI8
aI9
aI10
atRp4
sS'/usr/local/Cellar/python@2/2.7.15_1/Frameworks/Python.framework/Versions/2.7/lib/python2.7/ctypes/macholib/dyld.py'
p5
g2
((lp6
I3
aI5
aI6
aI7
aI8
aI11
aI12
aI17
aI18
aI19
aI20
aI21
aI24
aI25
aI26
aI27
aI28
aI31
aI33
aI35
aI37
aI38
aI39
aI40
aI41
aI42
aI45
aI46
aI47
aI48
aI50
aI51
aI53
aI54
aI56
aI57
aI59
aI60
aI62
aI64
aI65
aI66
aI76
aI82
aI84
aI85
aI90
aI93
aI97
aI100
aI101
aI103
aI105
aI106
aI107
aI110
aI111
aI114
aI115
aI116
aI118
aI119
aI120
aI122
aI126
aI127
aI128
aI129
aI130
aI131
aI132
aI133
aI134
aI135
aI137
aI160
aI165
atRp7
sS'<attrs generated hash 1bb61d477cd7141f539a7a104f9fb5f2f966d615>'
p8
g2
((lp9
I1
atRp10
sS'/usr/local/Cellar/python@2/2.7.15_1/Frameworks/Python.framework/Versions/2.7/lib/python2.7/atexit.py'
p11
g2
((lp12
I37
aI6
aI8
aI10
aI12
aI13
aI49
aI52
aI54
atRp13
sS'/usr/local/Cellar/python@2/2.7.15_1/Frameworks/Python.framework/Versions/2.7/lib/python2.7/sre_parse.py'
p14
g2
((lp15
I69
aI70
aI71
aI72
aI73
aI76
aI77
aI78
aI79
aI80
aI83
aI84
aI85
aI87
aI94
aI95
aI96
aI97
aI98
aI139
aI143
aI144
aI145
aI147
aI151
aI154
aI155
aI156
aI157
aI158
aI159
aI160
aI161
aI162
aI163
aI164
aI165
aI166
aI167
aI168
aI169
aI173
aI174
aI175
aI176
aI177
aI178
aI179
aI180
aI181
aI182
aI183
aI184
aI186
aI187
aI191
aI192
aI193
aI195
aI196
aI197
aI198
aI199
aI200
aI201
aI204
aI205
aI206
aI208
aI209
aI210
aI211
aI212
aI214
aI215
aI216
aI223
aI230
aI232
aI233
aI235
aI239
aI240
aI241
aI242
aI243
aI244
aI245
aI246
aI247
aI255
aI261
aI263
aI264
aI273
aI280
aI281
aI282
aI283
aI284
aI285
aI286
aI287
aI288
aI295
aI300
aI321
aI322
aI331
aI339
aI340
aI341
aI342
aI343
aI344
aI345
aI346
aI347
aI348
aI349
aI353
aI354
aI356
aI357
aI360
aI361
aI362
aI363
aI365
aI366
aI367
aI368
aI376
aI379
aI380
aI381
aI392
aI393
aI416
aI419
aI420
aI421
aI422
aI423
aI424
aI425
aI426
aI428
aI430
aI431
aI432
aI433
aI434
aI436
aI438
aI439
aI440
aI441
aI442
aI443
aI444
aI445
aI447
aI448
aI450
aI452
aI453
aI456
aI457
aI459
aI460
aI461
aI462
aI463
aI464
aI465
aI466
aI467
aI470
aI472
aI473
aI479
aI480
aI483
aI484
aI486
aI487
aI488
aI490
aI494
aI495
aI496
aI499
aI500
aI501
aI502
aI505
aI507
aI509
aI510
aI511
aI512
aI514
aI515
aI547
aI548
aI551
aI553
aI555
aI556
aI558
aI560
aI561
aI563
aI564
aI565
aI566
aI567
aI568
aI570
aI572
aI574
aI575
aI576
aI577
aI579
aI580
aI581
aI582
aI583
aI585
aI588
aI590
aI591
aI592
aI593
aI595
aI596
aI597
aI598
aI600
aI603
aI604
aI607
aI612
aI613
aI619
aI621
aI622
aI631
aI633
aI634
aI635
aI641
aI642
aI644
aI646
aI647
aI649
aI650
aI651
aI681
aI683
aI684
aI685
aI687
aI689
aI691
aI692
aI695
aI696
aI698
aI699
aI700
aI702
aI703
aI704
aI706
aI707
aI710
aI711
aI713
aI714
aI716
aI717
aI718
aI723
aI728
aI730
aI731
aI732
aI733
aI735
aI736
aI743
aI744
aI746
aI749
aI752
aI754
aI757
atRp16
sS'<attrs generated eq 1712966da775d03255f93aa023a4fb82294e9766>'
p17
g2
((lp18
I1
atRp19
sS'/usr/local/lib/python2.7/site-packages/pluggy/_tracing.py'
p20
g2
((lp21
I3
aI4
aI7
aI8
aI76
aI13
aI16
aI82
aI67
aI68
aI32
aI41
aI44
aI52
aI53
aI57
aI60
aI63
atRp22
sS'/usr/local/Cellar/python@2/2.7.15_1/Frameworks/Python.framework/Versions/2.7/lib/python2.7/repr.py'
p23
g2
((lp24
I1
aI3
aI132
aI5
aI6
aI8
aI10
aI11
aI12
aI13
aI14
aI15
aI16
aI17
aI18
aI19
aI20
aI21
aI23
aI26
aI41
aI54
aI57
aI60
aI64
aI68
aI73
aI76
aI91
aI100
aI108
aI131
aI122
atRp25
sS'/usr/local/Cellar/python@2/2.7.15_1/Frameworks/Python.framework/Versions/2.7/lib/python2.7/sre_compile.py'
p26
g2
((lp27
I66
aI67
aI68
aI69
aI70
aI71
aI72
aI73
aI74
aI75
aI77
aI78
aI79
aI80
aI81
aI82
aI83
aI84
aI85
aI87
aI88
aI89
aI90
aI91
aI93
aI94
aI96
aI97
aI98
aI99
aI100
aI101
aI102
aI104
aI105
aI106
aI107
aI108
aI109
aI110
aI111
aI113
aI114
aI115
aI124
aI125
aI126
aI128
aI129
aI130
aI131
aI132
aI133
aI134
aI136
aI137
aI138
aI139
aI140
aI141
aI142
aI143
aI146
aI147
aI148
aI149
aI151
aI152
aI153
aI154
aI155
aI157
aI158
aI159
aI160
aI161
aI167
aI168
aI169
aI170
aI176
aI177
aI178
aI179
aI180
aI182
aI183
aI184
aI185
aI186
aI187
aI188
aI189
aI190
aI192
aI193
aI194
aI195
aI196
aI197
aI198
aI199
aI206
aI207
aI210
aI211
aI230
aI231
aI232
aI233
aI234
aI235
aI236
aI237
aI238
aI239
aI240
aI241
aI242
aI243
aI245
aI246
aI248
aI249
aI251
aI254
aI258
aI259
aI260
aI261
aI262
aI263
aI264
aI265
aI266
aI267
aI268
aI272
aI273
aI274
aI275
aI276
aI277
aI284
aI285
aI286
aI287
aI289
aI310
aI313
aI314
aI315
aI316
aI317
aI318
aI319
aI320
aI321
aI322
aI323
aI326
aI327
aI329
aI330
aI331
aI333
aI334
aI336
aI337
aI339
aI342
aI343
aI344
aI345
aI346
aI412
aI413
aI414
aI430
aI431
aI437
aI438
aI439
aI441
aI442
aI443
aI444
aI445
aI446
aI448
aI449
aI450
aI451
aI452
aI453
aI454
aI455
aI458
aI460
aI462
aI463
aI464
aI465
aI466
aI468
aI481
aI494
aI495
aI501
aI502
aI503
aI505
aI506
aI507
aI508
aI510
aI511
aI512
aI514
aI515
aI519
aI522
aI524
aI525
aI526
aI527
aI529
aI530
aI531
aI532
aI533
aI534
aI535
aI536
aI537
aI547
aI548
aI549
aI554
aI555
aI558
aI561
aI563
aI565
aI570
aI571
aI572
aI576
aI581
aI587
aI588
aI589
aI590
aI592
aI593
aI594
aI595
atRp28
sS'<attrs generated hash daa90d934d742de2314062c8d280aea9540261e2>'
p29
g2
((lp30
I1
atRp31
sS'<attrs generated init e69de0a1fd4dcc2cc6f007876f7586b5925d7c71>'
p32
g2
((lp33
I1
aI2
atRp34
sS'/usr/local/lib/python2.7/site-packages/_pytest/freeze_support.py'
p35
g2
((lp36
I4
aI5
aI8
aI21
atRp37
sS'/usr/local/lib/python2.7/site-packages/_pytest/_code/source.py'
p38
g2
((lp39
I1
aI259
aI4
aI5
aI6
aI7
aI8
aI9
aI10
aI139
aI12
aI14
aI143
aI17
aI3
aI20
aI22
aI24
aI287
aI42
aI263
aI50
aI52
aI187
aI62
aI65
aI11
aI202
aI119
aI78
aI89
aI97
aI104
aI235
aI113
aI247
atRp40
sS'/usr/local/lib/python2.7/site-packages/_pytest/nodes.py'
p41
g2
((lp42
I257
aI2
aI3
aI5
aI518
aI7
aI9
aI10
aI11
aI12
aI14
aI16
aI18
aI515
aI277
aI285
aI1
aI6
aI297
aI45
aI306
aI57
aI58
aI59
aI61
aI320
aI488
aI327
aI73
aI330
aI75
aI78
aI338
aI346
aI349
aI113
aI118
aI119
aI120
aI121
aI122
aI123
aI125
aI21
aI136
aI394
aI139
aI397
aI415
aI496
aI418
aI420
aI421
aI423
aI429
aI436
aI186
aI445
aI451
aI452
aI206
aI477
aI478
aI481
aI484
aI486
aI232
aI237
aI240
aI243
aI246
atRp43
sS'<attrs generated eq 44c4e690bacdffc75635561d86e7fd94fba51458>'
p44
g2
((lp45
I1
atRp46
sS'<attrs generated init f2289920a32468874a09335bf0a6f229fc0c0bd4>'
p47
g2
((lp48
I1
aI2
aI3
aI4
aI5
aI6
aI7
atRp49
sS'/usr/local/Cellar/python@2/2.7.15_1/Frameworks/Python.framework/Versions/2.7/lib/python2.7/pdb.py'
p50
g2
((lp51
I3
aI1030
aI7
aI8
aI9
aI10
aI11
aI12
aI13
aI14
aI15
aI1040
aI18
aI19
aI20
aI1047
aI24
aI25
aI26
aI1051
aI28
aI29
aI31
aI1057
aI1060
aI552
aI1069
aI1072
aI1076
aI1080
aI57
aI59
aI1084
aI61
aI1095
aI584
aI1102
aI1037
aI1104
aI1107
aI1111
aI1113
aI527
aI1117
aI1121
aI107
aI111
aI627
aI117
aI631
aI632
aI1145
aI634
aI1149
aI1044
aI128
aI1027
aI643
aI645
aI961
aI141
aI654
aI656
aI659
aI661
aI150
aI664
aI666
aI669
aI671
aI1184
aI1187
aI681
aI683
aI686
aI688
aI691
aI693
aI184
aI1211
aI629
aI192
aI710
aI712
aI207
aI724
aI1237
aI1240
aI729
aI730
aI1243
aI732
aI221
aI1247
aI738
aI1255
aI749
aI751
aI756
aI1269
aI758
aI1275
aI1277
aI213
aI1281
aI770
aI776
aI1292
aI782
aI271
aI283
aI826
aI315
aI828
aI317
aI1250
aI1034
aI855
aI344
aI1339
aI868
aI875
aI876
aI886
aI893
aI905
aI908
aI915
aI918
aI924
aI926
aI929
aI934
aI937
aI427
aI942
aI945
aI434
aI436
aI439
aI958
aI160
aI246
aI974
aI978
aI983
aI472
aI988
aI996
aI1003
aI493
aI1006
aI1011
aI1022
aI1014
aI1019
aI510
atRp52
sS'/usr/local/lib/python2.7/site-packages/_pytest/assertion/rewrite.py'
p53
g2
((lp54
I1
aI2
aI3
aI4
aI5
aI6
aI7
aI8
aI9
aI10
aI11
aI12
aI514
aI14
aI16
aI17
aI19
aI20
aI21
aI22
aI537
aI539
aI28
aI541
aI542
aI543
aI544
aI33
aI34
aI35
aI548
aI549
aI38
aI39
aI552
aI41
aI554
aI555
aI556
aI557
aI558
aI47
aI560
aI561
aI51
aI52
aI565
aI566
aI567
aI570
aI522
aI574
aI578
aI69
aI73
aI77
aI13
aI593
aI868
aI643
aI645
aI650
aI25
aI540
aI174
aI30
aI545
aI716
aI546
aI720
aI547
aI212
aI727
aI36
aI733
aI737
aI550
aI743
aI233
aI551
aI748
aI775
aI246
aI553
aI761
aI43
aI263
aI272
aI794
aI559
aI800
aI298
aI308
aI564
aI54
aI326
aI333
aI858
aI355
aI356
aI358
aI359
aI362
aI903
aI909
aI917
aI418
aI944
aI949
aI454
aI459
aI982
aI985
aI987
aI481
aI484
aI997
aI510
atRp55
sS'errors.py'
p56
g2
((lp57
I1
aI4
aI5
aI6
aI9
aI13
aI14
aI17
aI18
aI19
aI22
aI23
aI24
aI27
aI28
aI29
aI32
aI33
aI34
aI37
aI38
aI39
aI42
aI43
aI44
aI47
aI48
aI49
aI52
aI53
aI54
aI57
aI58
aI59
aI62
aI63
aI64
aI67
aI68
aI69
aI72
aI73
aI74
aI77
aI78
aI79
aI82
aI83
aI84
aI87
aI88
aI89
aI92
aI93
aI94
aI97
aI98
aI99
aI102
aI103
aI104
aI107
aI108
aI109
aI112
aI113
aI114
atRp58
sS'/usr/local/lib/python2.7/site-packages/_pytest/python.py'
p59
g2
((lp60
I1
aI2
aI4
aI5
aI6
aI7
aI8
aI521
aI10
aI1036
aI13
aI14
aI15
aI16
aI18
aI19
aI532
aI21
aI22
aI23
aI546
aI41
aI42
aI556
aI47
aI50
aI51
aI9
aI56
aI57
aI59
aI62
aI353
aI1108
aI616
aI626
aI627
aI629
aI20
aI124
aI136
aI650
aI662
aI663
aI1178
aI156
aI671
aI675
aI1191
aI680
aI682
aI684
aI285
aI115
aI182
aI1207
aI187
aI1213
aI1141
aI193
aI710
aI1065
aI731
aI739
aI740
aI232
aI233
aI234
aI235
aI238
aI239
aI241
aI244
aI245
aI553
aI255
aI258
aI771
aI260
aI262
aI265
aI784
aI790
aI796
aI797
aI288
aI808
aI1326
aI305
aI306
aI820
aI309
aI824
aI1342
aI832
aI1345
aI1347
aI836
aI1349
aI1355
aI1356
aI1357
aI1358
aI1359
aI336
aI1361
aI1362
aI228
aI859
aI865
aI867
aI333
aI318
aI1398
aI378
aI893
aI382
aI386
aI1413
aI321
aI1418
aI1425
aI1430
aI1433
aI1437
aI1442
aI1446
aI1265
aI1448
aI668
aI1451
aI436
aI437
aI439
aI442
aI446
aI1271
aI975
aI846
aI1360
aI1007
aI496
aI596
aI170
aI510
aI511
atRp61
sS'<attrs generated hash ac16c9c836cdc161a8948f5ac27bc25afb424825>'
p62
g2
((lp63
I1
atRp64
sS'/usr/local/lib/python2.7/site-packages/py/__init__.py'
p65
g2
((lp66
I10
aI11
aI13
aI14
aI15
aI16
aI22
aI23
aI29
aI31
aI33
aI34
aI38
aI41
aI42
aI43
aI44
aI45
aI48
aI49
aI50
aI53
aI54
aI55
aI58
aI59
aI60
aI61
aI62
aI63
aI67
aI68
aI69
aI70
aI71
aI72
aI73
aI74
aI75
aI76
aI77
aI78
aI79
aI80
aI81
aI82
aI83
aI87
aI88
aI89
aI90
aI91
aI92
aI93
aI94
aI95
aI96
aI97
aI98
aI99
aI100
aI101
aI102
aI103
aI104
aI105
aI106
aI107
aI108
aI109
aI110
aI111
aI112
aI113
aI114
aI118
aI119
aI120
aI121
aI122
aI123
aI124
aI125
aI126
aI127
aI128
aI129
aI133
aI134
aI135
aI136
aI137
aI138
aI139
aI142
aI144
aI145
aI146
aI147
aI148
aI149
aI150
aI151
aI152
aI153
atRp67
sS'<attrs generated eq b9b268420a0b58f8553085e39bd4957d7a53a5cd>'
p68
g2
((lp69
I1
atRp70
sS'<attrs generated eq da82d1070209abcec5aa72fe2cb60689b5e10333>'
p71
g2
((lp72
I1
atRp73
sS'/usr/local/lib/python2.7/site-packages/_pytest/hookspec.py'
p74
g2
((lp75
I1
aI3
aI516
aI7
aI14
aI271
aI259
aI281
aI27
aI288
aI548
aI295
aI299
aI53
aI318
aI65
aI329
aI333
aI593
aI597
aI527
aI606
aI351
aI98
aI362
aI373
aI377
aI122
aI381
aI4
aI391
aI136
aI577
aI400
aI150
aI410
aI164
aI425
aI436
aI182
aI444
aI192
aI452
aI202
aI589
aI464
aI209
aI222
aI481
aI232
aI495
aI243
aI247
aI251
aI509
aI255
atRp76
sS'/usr/local/lib/python2.7/site-packages/pluggy/__init__.py'
p77
g2
((lp78
I1
aI2
aI9
aI10
aI11
aI12
aI13
aI16
aI17
aI18
atRp79
sS'<attrs generated init 42150654db18c62bebef11ab25a04e37596a05db>'
p80
g2
((lp81
I1
atRp82
sS'<attrs generated init a399a8703f2fff692d681e2eda974951c2afaf88>'
p83
g2
((lp84
I1
atRp85
sS'/usr/local/Cellar/python@2/2.7.15_1/Frameworks/Python.framework/Versions/2.7/lib/python2.7/bisect.py'
p86
g2
((lp87
I1
aI67
aI45
aI47
aI3
aI22
aI24
aI89
aI90
atRp88
sS'/usr/local/lib/python2.7/site-packages/attr/filters.py'
p89
g2
((lp90
I3
aI5
aI38
aI7
aI8
aI11
aI21
atRp91
sS'/usr/local/Cellar/python@2/2.7.15_1/Frameworks/Python.framework/Versions/2.7/lib/python2.7/inspect.py'
p92
g2
((lp93
I160
aI161
aI65
aI153
atRp94
sS'/usr/local/lib/python2.7/site-packages/attr/exceptions.py'
p95
g2
((lp96
I1
aI4
aI12
aI14
aI15
aI18
aI23
aI26
aI31
aI34
aI40
aI43
aI49
aI52
aI57
atRp97
sS'/usr/local/lib/python2.7/site-packages/_pytest/_version.py'
p98
g2
((lp99
I4
atRp100
sS'/usr/local/Cellar/python@2/2.7.15_1/Frameworks/Python.framework/Versions/2.7/lib/python2.7/subprocess.py'
p101
g2
((lp102
I1282
aI1067
aI44
aI1050
aI1051
aI1052
aI1053
aI31
aI33
aI34
aI859
aI36
aI37
aI38
aI39
aI40
aI297
aI1323
aI1068
aI50
aI51
aI334
aI55
aI59
aI1340
aI1094
aI72
aI73
aI74
aI75
aI332
aI846
aI335
aI336
aI337
aI338
aI84
aI87
aI88
aI90
aI1115
aI100
aI101
aI871
aI105
aI107
aI118
aI119
aI888
aI889
aI122
aI1148
aI900
aI136
aI794
aI164
aI175
aI432
aI438
aI1209
aI194
aI331
aI452
aI41
aI79
aI78
aI227
aI486
aI492
aI1266
aI1271
aI1276
atRp103
sS'<attrs generated init da82d1070209abcec5aa72fe2cb60689b5e10333>'
p104
g2
((lp105
I1
atRp106
sS'<attrs generated eq 2f88b4efa2987cb0bc2825467ae581853b68e58f>'
p107
g2
((lp108
I1
atRp109
sS'/usr/local/lib/python2.7/site-packages/pathlib2/__init__.py'
p110
g2
((lp111
I1028
aI5
aI6
aI7
aI8
aI9
aI10
aI11
aI12
aI13
aI14
aI15
aI16
aI17
aI19
aI21
aI22
aI1049
aI27
aI28
aI32
aI33
aI41
aI43
aI44
aI45
aI46
aI49
aI50
aI1081
aI58
aI65
aI1093
aI1101
aI1104
aI1107
aI1108
aI1109
aI1111
aI1121
aI1126
aI103
aI1133
aI1138
aI123
aI1166
aI1170
aI1171
aI1172
aI1175
aI1176
aI1177
aI1183
aI1186
aI1189
aI1223
aI1201
aI185
aI191
aI194
aI1215
aI1220
aI197
aI199
aI1226
aI1230
aI1241
aI1248
aI1255
aI239
aI1273
aI257
aI261
aI262
aI1287
aI264
aI266
aI268
aI269
aI273
aI274
aI1301
aI283
aI1313
aI1331
aI322
aI325
aI1351
aI328
aI1358
aI1365
aI1372
aI1373
aI353
aI363
aI1388
aI367
aI1395
aI1402
aI379
aI1413
aI392
aI1424
aI1447
aI424
aI425
aI426
aI427
aI428
aI430
aI432
aI1469
aI448
aI451
aI1477
aI454
aI1486
aI1495
aI1209
aI1503
aI763
aI1512
aI1520
aI501
aI504
aI1532
aI510
aI1544
aI87
aI526
aI527
aI530
aI1556
aI533
aI536
aI538
aI539
aI542
aI544
aI1569
aI548
aI550
aI552
aI554
aI263
aI556
aI558
aI1583
aI560
aI562
aI563
aI568
aI570
aI1595
aI572
aI574
aI576
aI579
aI1608
aI588
aI592
aI595
aI1621
aI599
aI606
aI1634
aI621
aI1647
aI625
aI628
aI630
aI1659
aI1660
aI639
aI1664
aI1666
aI1669
aI651
aI653
aI657
aI659
aI663
aI679
aI681
aI685
aI707
aI709
aI712
aI730
aI757
aI760
aI761
aI1663
aI770
aI196
aI776
aI782
aI786
aI793
aI796
aI799
aI809
aI814
aI843
aI844
aI856
aI857
aI866
aI873
aI877
aI883
aI893
aI896
aI902
aI909
aI912
aI918
aI927
aI934
aI937
aI944
aI950
aI956
aI962
aI968
aI969
aI971
aI972
aI974
aI980
aI988
aI998
aI1007
aI545
aI1017
atRp112
sS'<attrs generated init de97cbdc63a71368bd59325f109c097e725d7509>'
p113
g2
((lp114
I1
atRp115
sS'/usr/local/lib/python2.7/site-packages/py/_path/common.py'
p116
g2
((lp117
I256
aI2
aI3
aI4
aI5
aI6
aI7
aI8
aI11
aI13
aI14
aI15
aI16
aI276
aI280
aI25
aI26
aI306
aI47
aI48
aI50
aI53
aI312
aI315
aI138
aI62
aI309
aI67
aI70
aI73
aI331
aI76
aI141
aI56
aI82
aI85
aI342
aI346
aI353
aI59
aI359
aI122
aI123
aI380
aI125
aI126
aI127
aI129
aI131
aI133
aI390
aI135
aI136
aI394
aI397
aI398
aI143
aI146
aI148
aI151
aI153
aI412
aI157
aI162
aI168
aI173
aI432
aI433
aI436
aI191
aI200
aI212
aI216
aI79
aI237
atRp118
sS'<string>'
p119
g2
((lp120
I1
aI2
aI4
aI5
aI6
aI8
aI12
aI13
aI20
aI24
aI28
aI35
aI39
aI41
aI45
aI47
aI49
atRp121
sS'<attrs generated init 907dfba480d3ee7aecf62829b2311d62cb34eb90>'
p122
g2
((lp123
I1
atRp124
sS'/usr/local/lib/python2.7/site-packages/figleaf-0.6.1-py2.7.egg/figleaf/__init__.py'
p125
g2
((lp126
I234
aI235
atRp127
sS'/usr/local/Cellar/python@2/2.7.15_1/Frameworks/Python.framework/Versions/2.7/lib/python2.7/bdb.py'
p128
g2
((lp129
I1
aI3
aI4
aI5
aI6
aI8
aI266
aI11
aI14
aI272
aI533
aI23
aI285
aI39
aI299
aI45
aI561
aI309
aI10
aI65
aI322
aI71
aI328
aI335
aI84
aI341
aI94
aI614
aI615
aI104
aI361
aI619
aI29
aI110
aI317
aI626
aI628
aI632
aI637
aI126
aI21
aI641
aI389
aI407
aI148
aI238
aI151
aI157
aI162
aI166
aI425
aI170
aI431
aI176
aI187
aI445
aI192
aI449
aI204
aI462
aI208
aI467
aI212
aI469
aI473
aI227
aI252
aI468
aI494
aI502
aI505
aI251
aI508
atRp130
sS'<attrs generated hash 7288a60464b4b0a65c9147ce89d9e15ce0fefe55>'
p131
g2
((lp132
I1
atRp133
sS'/usr/local/Cellar/python@2/2.7.15_1/Frameworks/Python.framework/Versions/2.7/lib/python2.7/string.py'
p134
g2
((lp135
I294
atRp136
sS'/usr/local/Cellar/python@2/2.7.15_1/Frameworks/Python.framework/Versions/2.7/lib/python2.7/doctest.py'
p137
g2
((lp138
I2048
aI2049
aI2077
aI1054
aI178
aI46
aI48
aI2098
aI52
aI53
aI54
aI55
aI56
aI57
aI58
aI2107
aI60
aI61
aI62
aI63
aI64
aI67
aI2116
aI70
aI72
aI74
aI75
aI76
aI77
aI78
aI80
aI81
aI82
aI355
aI84
aI2133
aI86
aI87
aI88
aI90
aI91
aI92
aI93
aI2142
aI96
aI98
aI99
aI100
aI101
aI102
aI104
aI127
aI128
aI130
aI132
aI133
aI134
aI135
aI136
aI137
aI1164
aI1166
aI143
aI144
aI146
aI147
aI148
aI149
aI153
aI154
aI2204
aI157
aI158
aI1202
aI2228
aI2078
aI1404
aI190
aI1215
aI2240
aI1223
aI1230
aI209
aI1237
aI223
aI225
aI1257
aI237
aI772
aI249
aI250
aI263
aI2312
aI2315
aI272
aI2325
aI2328
aI2332
aI1925
aI2336
aI2338
aI2341
aI2342
aI2346
aI2349
aI2352
aI2355
aI2358
aI321
aI329
aI2787
aI59
aI1380
aI360
aI361
aI1390
aI368
aI1393
aI374
aI380
aI2431
aI2433
aI2436
aI2438
aI391
aI2440
aI2445
aI2446
aI2447
aI68
aI2474
aI427
aI1466
aI1106
aI2124
aI461
aI462
aI463
aI480
aI491
aI2130
aI494
aI1523
aI1621
aI1536
aI1543
aI1544
aI522
aI523
aI537
aI547
aI2140
aI558
aI561
aI565
aI1598
aI575
aI578
aI2629
aI584
aI780
aI595
aI2645
aI2650
aI606
aI617
aI621
aI623
aI2682
aI1669
aI2696
aI1679
aI1680
aI2708
aI1685
aI662
aI1688
aI2720
aI1698
aI1699
aI1704
aI2730
aI1707
aI688
aI2740
aI2746
aI2762
aI2547
aI2771
aI2778
aI739
aI740
aI742
aI2791
aI2816
aI770
aI1796
aI1798
aI1804
aI2178
aI1807
aI1817
aI794
aI1819
aI1820
aI1821
aI2181
aI810
aI817
aI819
aI820
aI1161
aI841
aI2190
aI2196
aI1923
aI1924
aI2710
aI1926
aI934
aI499
aI954
aI2180
aI674
aI1017
atRp139
sS'/usr/local/lib/python2.7/site-packages/attr/_make.py'
p140
g2
((lp141
I1
aI3
aI4
aI5
aI6
aI7
aI8
aI10
aI12
aI13
aI21
aI31
aI32
aI33
aI35
aI37
aI41
aI43
aI46
aI51
aI53
aI55
aI56
aI57
aI58
aI60
aI61
aI64
aI71
aI72
aI73
aI74
aI75
aI76
aI77
aI78
aI79
aI80
aI81
aI82
aI176
aI181
aI195
aI205
aI206
aI208
aI209
aI210
aI211
aI212
aI213
aI214
aI215
aI216
aI217
aI218
aI222
aI232
aI234
aI235
aI237
aI238
aI239
aI240
aI244
aI245
aI247
aI252
aI253
aI256
aI258
aI260
aI265
aI276
aI280
aI281
aI282
aI292
aI299
aI307
aI308
aI310
aI315
aI345
aI347
aI348
aI349
aI351
aI355
aI358
aI361
aI362
aI363
aI366
aI378
aI380
aI382
aI386
aI388
aI389
aI390
aI392
aI393
aI394
aI403
aI404
aI405
aI409
aI411
aI412
aI419
aI422
aI425
aI432
aI439
aI442
aI456
aI459
aI470
aI471
aI474
aI475
aI476
aI477
aI478
aI479
aI480
aI481
aI482
aI483
aI484
aI485
aI487
aI489
aI490
aI491
aI493
aI496
aI502
aI503
aI505
aI507
aI511
aI512
aI515
aI516
aI518
aI519
aI521
aI522
aI530
aI531
aI533
aI535
aI539
aI541
aI542
aI543
aI546
aI549
aI554
aI556
aI557
aI558
aI559
aI561
aI565
aI566
aI568
aI570
aI571
aI575
aI576
aI579
aI585
aI594
aI595
aI598
aI606
aI607
aI612
aI614
aI615
aI616
aI617
aI620
aI622
aI623
aI624
aI626
aI628
aI641
aI642
aI643
aI645
aI646
aI647
aI648
aI652
aI654
aI655
aI656
aI657
aI658
aI659
aI660
aI661
aI662
aI666
aI668
aI669
aI674
aI677
aI679
aI683
aI684
aI688
aI689
aI690
aI692
aI693
aI695
aI699
aI700
aI701
aI702
aI703
aI704
aI705
aI706
aI707
aI708
aI709
aI710
aI711
aI712
aI843
aI844
aI847
aI848
aI849
aI850
aI851
aI852
aI853
aI854
aI855
aI858
aI859
aI860
aI862
aI863
aI865
aI870
aI871
aI877
aI878
aI880
aI886
aI888
aI889
aI891
aI897
aI901
aI902
aI904
aI907
aI914
aI916
aI922
aI923
aI938
aI945
aI946
aI947
aI948
aI949
aI952
aI955
aI956
aI957
aI958
aI960
aI962
aI968
aI969
aI972
aI973
aI975
aI977
aI990
aI992
aI993
aI994
aI995
aI996
aI1001
aI1002
aI1003
aI1004
aI1007
aI1010
aI1014
aI1015
aI1018
aI1031
aI1036
aI1037
aI1040
aI1041
aI1042
aI1044
aI1045
aI1046
aI1050
aI1051
aI1052
aI1053
aI1054
aI1055
aI1057
aI1061
aI1062
aI1063
aI1064
aI1065
aI1070
aI1071
aI1072
aI1073
aI1075
aI1076
aI1078
aI1084
aI1097
aI1110
aI1123
aI1136
aI1139
aI1143
aI1144
aI1146
aI1147
aI1150
aI1153
aI1156
aI1160
aI1162
aI1166
aI1167
aI1168
aI1169
aI1170
aI1172
aI1174
aI1175
aI1176
aI1177
aI1180
aI1188
aI1189
aI1190
aI1191
aI1192
aI1193
aI1194
aI1196
aI1197
aI1198
aI1200
aI1202
aI1205
aI1209
aI1210
aI1212
aI1213
aI1216
aI1217
aI1220
aI1221
aI1222
aI1224
aI1225
aI1227
aI1228
aI1229
aI1230
aI1231
aI1234
aI1235
aI1240
aI1241
aI1242
aI1243
aI1246
aI1247
aI1248
aI1251
aI1266
aI1294
aI1322
aI1339
aI1343
aI1347
aI1350
aI1361
aI1362
aI1363
aI1365
aI1366
aI1393
aI1394
aI1401
aI1402
aI1408
aI1409
aI1410
aI1412
aI1414
aI1415
aI1416
aI1419
aI1420
aI1421
aI1422
aI1423
aI1428
aI1429
aI1430
aI1431
aI1434
aI1435
aI1436
aI1437
aI1438
aI1439
aI1442
aI1443
aI1444
aI1448
aI1449
aI1451
aI1452
aI1453
aI1454
aI1455
aI1456
aI1457
aI1458
aI1460
aI1461
aI1462
aI1463
aI1464
aI1474
aI1475
aI1476
aI1477
aI1480
aI1502
aI1503
aI1504
aI1506
aI1509
aI1510
aI1511
aI1514
aI1516
aI1517
aI1518
aI1519
aI1522
aI1523
aI1524
aI1526
aI1527
aI1543
aI1544
aI1545
aI1546
aI1547
aI1548
aI1549
aI1552
aI1554
aI1557
aI1558
aI1559
aI1562
aI1564
aI1566
aI1567
aI1569
aI1570
aI1571
aI1572
aI1573
aI1574
aI1575
aI1576
aI1578
aI1579
aI1580
aI1588
aI1600
aI1601
aI1615
aI1616
aI1618
aI1619
aI1623
aI1632
aI1645
aI1657
aI1658
aI1659
aI1660
aI1661
aI1664
aI1668
aI1682
aI1683
aI1684
aI1685
aI1686
aI1687
aI1688
aI1689
aI1690
aI1691
aI1694
aI1695
aI1698
aI1699
aI1701
aI1704
aI1714
aI1715
aI1717
aI1718
aI1724
aI1725
aI1726
aI1732
aI1735
aI1736
aI1737
aI1738
aI1739
aI1740
aI1744
aI1755
aI1764
aI1770
aI1785
aI1794
aI1795
aI1798
aI1799
aI1800
aI1804
aI1811
aI1824
aI1826
aI1827
aI1837
aI1839
aI1840
aI1841
aI1842
aI1843
aI1844
aI1845
aI1846
aI1847
aI1850
aI1852
aI1865
aI1866
aI1867
aI1869
aI1872
aI1873
aI1874
aI1875
aI1876
aI1877
aI1878
aI1879
aI1880
aI1882
aI1890
aI1891
aI1894
aI1896
aI1914
aI1917
aI1918
aI1931
aI1933
aI1934
aI1936
aI1941
aI1942
aI1945
aI2002
aI2003
aI2006
aI2008
aI2010
aI2015
atRp142
sS'/usr/local/lib/python2.7/site-packages/_pytest/compat.py'
p143
g2
((lp144
I256
aI257
aI3
aI4
aI6
aI7
aI8
aI9
aI10
aI11
aI13
aI15
aI16
aI88
aI18
aI20
aI21
aI260
aI26
aI27
aI30
aI288
aI33
aI35
aI36
aI38
aI39
aI40
aI43
aI303
aI48
aI49
aI52
aI56
aI313
aI60
aI64
aI65
aI67
aI69
aI97
aI72
aI73
aI74
aI77
aI334
aI83
aI84
aI344
aI353
aI17
aI111
aI374
aI378
aI379
aI380
aI382
aI383
aI384
aI385
aI388
aI390
aI392
aI393
aI320
aI411
aI414
aI416
aI164
aI171
aI182
aI227
aI228
aI230
aI248
aI254
atRp145
sS'/usr/local/lib/python2.7/site-packages/_pytest/assertion/__init__.py'
p146
g2
((lp147
I64
aI3
aI4
aI5
aI6
aI8
aI9
aI10
aI139
aI13
aI143
aI151
aI90
aI30
aI100
aI70
aI54
aI55
aI57
aI61
aI62
atRp148
sS'/usr/local/Cellar/python@2/2.7.15_1/Frameworks/Python.framework/Versions/2.7/lib/python2.7/unittest/loader.py'
p149
g2
((lp150
I1
aI3
aI4
aI5
aI6
aI7
aI9
aI10
aI12
aI14
aI145
aI19
aI22
aI299
aI27
aI30
aI133
aI38
aI296
aI42
aI43
aI44
aI45
aI46
aI48
aI307
aI310
aI311
aI314
aI315
aI77
aI209
aI221
aI59
aI231
aI235
aI239
aI126
atRp151
sS'<attrs generated init 7fa391520e2e52d4103c11603e76f86aa306477c>'
p152
g2
((lp153
I1
atRp154
sS'/usr/local/lib/python2.7/site-packages/pluggy/callers.py'
p155
g2
((lp156
I3
aI4
aI5
aI7
aI10
aI15
aI144
aI19
aI151
aI27
aI28
aI157
aI31
aI32
aI36
aI40
aI47
aI58
aI68
aI84
aI103
aI104
aI112
aI118
atRp157
sS'<attrs generated init 9b00368492cd355e9458cf8d86acda49bcd2abaf>'
p158
g2
((lp159
I1
aI2
aI3
aI4
aI5
aI6
aI7
atRp160
sS'<attrs generated init 8f19d8e518b09081eea4ef3b013e585a96b100ab>'
p161
g2
((lp162
I1
atRp163
sS'/usr/local/Cellar/python@2/2.7.15_1/Frameworks/Python.framework/Versions/2.7/lib/python2.7/unittest/main.py'
p164
g2
((lp165
I1
aI3
aI4
aI5
aI7
aI8
aI10
aI12
aI13
aI14
aI153
aI160
aI43
aI59
aI63
aI66
aI67
aI70
aI72
aI73
aI74
aI75
aI216
aI97
aI236
aI111
atRp166
sS'/usr/local/lib/python2.7/site-packages/pkg_resources/extern/__init__.py'
p167
g2
((lp168
I28
aI29
aI30
atRp169
sS'/usr/local/lib/python2.7/site-packages/pytest.py'
p170
g2
((lp171
I4
aI9
aI10
aI11
aI12
aI13
aI14
aI15
aI16
aI17
aI18
aI19
aI20
aI21
aI22
aI23
aI30
aI33
aI34
aI35
aI36
aI37
aI38
aI39
aI40
aI41
aI42
aI43
aI44
aI45
aI46
aI47
aI48
aI49
aI50
aI51
aI52
aI53
aI54
aI55
aI56
aI57
aI58
aI59
aI60
aI61
aI62
aI63
aI64
aI65
aI66
aI67
aI68
aI69
aI72
aI80
aI82
atRp172
sS'/usr/local/lib/python2.7/site-packages/attr/_config.py'
p173
g2
((lp174
I1
aI4
aI6
aI9
aI19
atRp175
sS'/usr/local/lib/python2.7/site-packages/funcsigs/version.py'
p176
g2
((lp177
I1
atRp178
sS'/usr/local/lib/python2.7/site-packages/_pytest/main.py'
p179
g2
((lp180
I1
aI2
aI4
aI5
aI6
aI7
aI8
aI9
aI11
aI12
aI13
aI14
aI16
aI17
aI18
aI22
aI23
aI24
aI25
aI26
aI27
aI30
aI293
aI554
aI561
aI311
aI572
aI267
aI593
aI351
aI352
aI609
aI357
aI363
aI620
aI367
aI368
aI370
aI373
aI374
aI377
aI378
aI379
aI381
aI364
aI398
aI657
aI405
aI413
aI415
aI418
aI166
aI170
aI432
aI445
aI213
aI217
aI477
aI229
aI233
aI492
aI250
atRp181
sS'/usr/local/lib/python2.7/site-packages/pluggy/_version.py'
p182
g2
((lp183
I4
atRp184
sS'<attrs generated eq a399a8703f2fff692d681e2eda974951c2afaf88>'
p185
g2
((lp186
I1
atRp187
sS'<attrs generated eq 907dfba480d3ee7aecf62829b2311d62cb34eb90>'
p188
g2
((lp189
I1
atRp190
sS'/usr/local/lib/python2.7/site-packages/_pytest/deprecated.py'
p191
g2
((lp192
I10
aI11
aI14
aI17
aI18
aI22
aI23
aI26
aI27
aI31
aI32
aI33
aI36
aI37
aI38
aI44
aI45
aI46
aI51
aI52
aI53
aI58
aI59
aI60
aI63
aI64
aI67
aI68
aI72
aI73
aI78
aI79
aI84
aI85
aI88
aI89
aI94
aI95
aI98
aI99
aI103
aI104
aI109
aI110
aI113
aI114
atRp193
sS'/usr/local/Cellar/python@2/2.7.15_1/Frameworks/Python.framework/Versions/2.7/lib/python2.7/pickle.py'
p194
g2
((lp195
I1024
aI1026
aI1028
aI1031
aI1033
aI1197
aI1042
aI25
aI27
aI29
aI30
aI31
aI32
aI33
aI34
aI35
aI37
aI38
aI41
aI42
aI43
aI44
aI45
aI46
aI1072
aI51
aI1077
aI1079
aI56
aI58
aI59
aI60
aI1086
aI66
aI67
aI1093
aI1098
aI1100
aI77
aI78
aI1103
aI1105
aI82
aI83
aI1108
aI1110
aI87
aI88
aI1113
aI90
aI1115
aI93
aI94
aI102
aI103
aI104
aI105
aI106
aI107
aI108
aI109
aI110
aI111
aI112
aI113
aI114
aI115
aI116
aI117
aI118
aI119
aI120
aI121
aI122
aI123
aI124
aI125
aI126
aI127
aI128
aI129
aI130
aI131
aI132
aI133
aI1158
aI135
aI136
aI137
aI138
aI1163
aI140
aI141
aI142
aI1168
aI145
aI1170
aI1172
aI149
aI150
aI1049
aI152
aI153
aI154
aI155
aI156
aI157
aI158
aI159
aI160
aI162
aI165
aI166
aI1191
aI171
aI173
aI1199
aI1205
aI1207
aI1370
aI1215
aI1217
aI209
aI220
aI227
aI1254
aI1256
aI1258
aI1260
aI1263
aI1267
aI1268
aI1272
aI250
aI260
aI269
aI1340
aI333
aI337
aI345
aI346
aI1371
aI1375
aI1378
aI1383
aI1084
aI1386
aI1392
aI1396
aI62
aI1091
aI69
aI430
aI432
aI434
aI436
aI441
aI443
aI151
aI465
aI931
aI1274
aI479
aI484
aI486
aI496
aI498
aI835
aI508
aI510
aI89
aI538
aI589
aI594
aI597
aI608
aI612
aI614
aI1128
aI646
aI961
aI657
aI658
aI661
aI1135
aI696
aI1141
aI1143
aI1145
aI734
aI736
aI1147
aI467
aI1150
aI1152
aI776
aI777
aI778
aI779
aI1154
aI783
aI1156
aI803
aI805
aI477
aI1160
aI833
aI139
aI1165
aI851
aI144
aI876
aI883
aI885
aI887
aI889
aI893
aI895
aI898
aI900
aI1174
aI903
aI905
aI907
aI909
aI911
aI913
aI915
aI917
aI1177
aI929
aI1179
aI933
aI935
aI937
aI939
aI941
aI943
aI945
aI947
aI1182
aI951
aI953
aI957
aI134
aI959
aI1184
aI963
aI965
aI967
aI978
aI980
aI983
aI985
aI987
aI989
aI1189
aI992
aI994
aI997
aI999
aI1002
aI1004
aI1006
aI1008
aI1010
aI1012
aI1014
aI1016
aI1018
aI1020
aI1022
atRp196
sS'<attrs generated hash 67b25038e680ef761ef830f2c8244b3d344fbc7a>'
p197
g2
((lp198
I1
atRp199
sS'/usr/local/lib/python2.7/site-packages/py/_vendored_packages/apipkg.py'
p200
g2
((lp201
I7
aI8
aI9
aI10
aI13
aI16
aI21
aI25
aI28
aI40
aI42
aI43
aI44
aI45
aI46
aI47
aI48
aI49
aI50
aI52
aI53
aI54
aI55
aI56
aI57
aI58
aI59
aI60
aI62
aI68
aI69
aI70
aI73
aI74
aI75
aI76
aI77
aI80
aI81
aI88
aI89
aI90
aI92
aI93
aI94
aI95
aI96
aI97
aI98
aI100
aI101
aI102
aI103
aI104
aI105
aI106
aI108
aI109
aI110
aI111
aI112
aI114
aI115
aI116
aI117
aI118
aI119
aI121
aI123
aI133
aI136
aI137
aI140
aI141
aI142
aI143
aI146
aI148
aI149
aI150
aI151
aI154
aI156
aI158
aI174
aI175
aI177
aI185
aI187
aI193
aI199
aI202
aI205
atRp202
sS'<attrs generated eq e69de0a1fd4dcc2cc6f007876f7586b5925d7c71>'
p203
g2
((lp204
I1
atRp205
sS'/usr/local/lib/python2.7/site-packages/py/_io/__init__.py'
p206
g2
((lp207
I1
atRp208
sS'/usr/local/lib/python2.7/site-packages/attr/validators.py'
p209
g2
((lp210
I3
aI132
aI5
aI134
aI7
aI136
aI10
aI13
aI14
aI15
aI17
aI149
aI155
aI133
aI35
aI36
aI37
aI41
aI54
aI57
aI58
aI59
aI61
aI76
aI82
aI98
aI99
aI100
aI102
aI108
aI114
atRp211
sS'/usr/local/lib/python2.7/site-packages/six.py'
p212
g2
((lp213
I21
aI23
aI25
aI26
aI27
aI28
aI29
aI31
aI32
aI36
aI37
aI38
aI40
aI49
aI50
aI51
aI52
aI53
aI55
aI60
aI62
aI63
aI64
aI65
aI71
aI72
aI75
aI77
aI80
aI82
aI83
aI86
aI88
aI89
aI91
aI92
aI93
aI94
aI97
aI100
aI103
aI105
aI106
aI107
aI112
aI114
aI115
aI117
aI124
aI126
aI127
aI128
aI130
aI136
aI139
aI141
aI142
aI143
aI154
aI155
aI156
aI157
aI159
aI160
aI161
aI164
aI171
aI173
aI174
aI175
aI177
aI178
aI179
aI181
aI182
aI184
aI185
aI186
aI187
aI189
aI190
aI191
aI195
aI196
aI198
aI199
aI200
aI201
aI202
aI205
aI206
aI207
aI209
aI218
aI224
aI226
aI229
aI231
aI232
aI236
aI237
aI238
aI239
aI240
aI241
aI242
aI243
aI244
aI245
aI246
aI247
aI248
aI249
aI250
aI251
aI252
aI253
aI254
aI255
aI256
aI257
aI258
aI259
aI260
aI261
aI262
aI263
aI264
aI265
aI266
aI267
aI268
aI269
aI270
aI271
aI272
aI273
aI274
aI275
aI276
aI277
aI278
aI279
aI280
aI281
aI282
aI283
aI284
aI285
aI286
aI287
aI288
aI289
aI290
aI291
aI292
aI293
aI294
aI295
aI296
aI297
aI298
aI299
aI300
aI301
aI302
aI305
aI310
aI311
aI312
aI313
aI314
aI316
aI318
aI319
aI322
aI324
aI328
aI329
aI330
aI331
aI332
aI333
aI334
aI335
aI336
aI337
aI338
aI339
aI340
aI341
aI342
aI343
aI344
aI345
aI346
aI347
aI348
aI349
aI350
aI351
aI352
aI354
aI355
aI356
aI358
aI360
aI361
aI364
aI366
aI370
aI371
aI372
aI374
aI375
aI376
aI378
aI380
aI381
aI384
aI386
aI390
aI391
aI392
aI393
aI394
aI395
aI396
aI397
aI398
aI399
aI400
aI401
aI402
aI403
aI404
aI405
aI406
aI407
aI408
aI409
aI410
aI411
aI412
aI413
aI414
aI415
aI416
aI417
aI418
aI419
aI420
aI421
aI422
aI423
aI424
aI426
aI427
aI428
aI430
aI432
aI433
aI436
aI438
aI442
aI443
aI444
aI445
aI447
aI448
aI449
aI451
aI453
aI454
aI457
aI459
aI463
aI465
aI466
aI467
aI469
aI471
aI472
aI475
aI477
aI478
aI479
aI480
aI481
aI482
aI483
aI485
aI488
aI489
aI492
aI497
aI508
aI517
aI518
aI520
aI521
aI522
aI523
aI526
aI527
aI531
aI534
aI535
aI541
aI552
aI555
aI558
aI561
aI563
aI566
aI567
aI568
aI571
aI572
aI573
aI574
aI575
aI576
aI579
aI598
aI601
aI604
aI607
aI610
aI612
aI614
aI616
aI617
aI618
aI619
aI620
aI621
aI624
aI648
aI652
aI654
aI655
aI657
aI660
aI662
aI663
aI664
aI665
aI666
aI667
aI668
aI669
aI672
aI676
aI680
aI684
aI699
aI701
aI702
aI703
aI704
aI705
aI706
aI709
aI711
aI716
aI719
aI728
aI736
aI740
aI741
aI795
aI796
aI798
aI805
aI807
aI808
aI809
aI819
aI835
aI851
aI872
aI873
aI874
aI879
aI880
aI885
aI886
aI889
aI891
atRp214
sS'/usr/local/lib/python2.7/site-packages/py/_io/capture.py'
p215
g2
((lp216
I1
aI2
aI3
aI4
aI6
aI7
aI11
aI12
aI13
aI271
aI259
aI20
aI21
aI282
aI29
aI31
aI32
aI34
aI305
aI52
aI313
aI69
aI328
aI332
aI80
aI345
aI91
aI351
aI352
aI354
aI355
aI356
aI358
aI360
aI362
aI365
aI366
aI119
aI120
aI124
aI133
aI137
aI140
aI141
aI154
aI156
aI171
aI178
aI183
aI184
aI185
aI287
aI288
aI198
aI234
aI242
aI246
atRp217
sS'/usr/local/lib/python2.7/site-packages/_pytest/_code/__init__.py'
p218
g2
((lp219
I1
aI2
aI3
aI4
aI5
aI6
aI7
aI8
aI9
aI10
aI11
atRp220
sS'/usr/local/lib/python2.7/site-packages/more_itertools/recipes.py'
p221
g2
((lp222
I299
aI518
aI9
aI10
aI11
aI14
aI15
aI17
aI18
aI276
aI21
aI22
aI23
aI24
aI25
aI26
aI27
aI28
aI29
aI30
aI31
aI288
aI33
aI34
aI35
aI36
aI37
aI38
aI39
aI40
aI41
aI42
aI43
aI44
aI45
aI46
aI47
aI48
aI52
aI325
aI82
aI343
aI97
aI354
aI115
aI126
aI394
aI406
aI166
aI427
aI179
aI447
aI193
aI32
aI203
aI467
aI217
aI227
aI485
aI237
aI501
aI249
aI554
atRp223
sS'/usr/local/Cellar/python@2/2.7.15_1/Frameworks/Python.framework/Versions/2.7/lib/python2.7/ctypes/_endian.py'
p224
g2
((lp225
I1
aI2
aI4
aI6
aI23
aI24
aI41
aI42
aI44
aI46
aI47
aI48
aI49
atRp226
sS'/usr/local/Cellar/python@2/2.7.15_1/Frameworks/Python.framework/Versions/2.7/lib/python2.7/ctypes/macholib/dylib.py'
p227
g2
((lp228
I3
aI5
aI7
aI9
aI45
aI17
aI19
aI62
atRp229
sS'test_atomizers.py'
p230
g2
((lp231
I1
aI2
aI3
aI4
aI5
aI6
atRp232
sS'<attrs generated init b9b268420a0b58f8553085e39bd4957d7a53a5cd>'
p233
g2
((lp234
I1
aI2
atRp235
sS'/usr/local/lib/python2.7/site-packages/pluggy/manager.py'
p236
g2
((lp237
I129
aI2
aI3
aI4
aI7
aI23
aI192
aI16
aI148
aI21
aI279
aI153
aI28
aI157
aI288
aI292
aI40
aI284
aI42
aI307
aI180
aI1
aI184
aI188
aI64
aI322
aI69
aI199
aI203
aI207
aI213
aI343
aI351
aI106
aI238
aI253
atRp238
sS'<attrs generated eq 27784d5fe28212232c05cfd5e99939c86e28f6b3>'
p239
g2
((lp240
I1
atRp241
sS'/usr/local/lib/python2.7/site-packages/_pytest/config/findpaths.py'
p242
g2
((lp243
I1
aI2
aI3
aI101
aI6
aI13
aI79
aI56
atRp244
sS'<attrs generated hash c764db6d19c949664e52437aabc82f32de408549>'
p245
g2
((lp246
I1
atRp247
sS'/usr/local/lib/python2.7/site-packages/py/_code/__init__.py'
p248
g2
((lp249
I1
atRp250
sS'<attrs generated eq 9b00368492cd355e9458cf8d86acda49bcd2abaf>'
p251
g2
((lp252
I1
atRp253
sS'/usr/local/lib/python2.7/site-packages/_pytest/recwarn.py'
p254
g2
((lp255
I1
aI130
aI4
aI134
aI7
aI8
aI9
aI11
aI2
aI14
aI17
aI146
aI30
aI6
aI177
aI52
aI187
aI188
aI204
aI13
aI142
aI106
aI110
aI112
aI117
aI122
aI126
atRp256
sS'/usr/local/lib/python2.7/site-packages/_pytest/debugging.py'
p257
g2
((lp258
I1
aI2
aI4
aI5
aI6
aI7
aI9
aI10
aI12
aI13
aI142
aI16
aI17
aI20
aI43
aI172
aI181
aI188
aI78
aI79
aI81
aI82
aI83
aI85
aI86
aI103
aI104
aI113
aI118
aI119
aI125
atRp259
sS'<attrs generated init 6222550a7a9c66f5ce5d026b19f3b2c56474acca>'
p260
g2
((lp261
I1
atRp262
sS'/usr/local/lib/python2.7/site-packages/_pytest/mark/legacy.py'
p263
g2
((lp264
I64
aI67
aI4
aI5
aI6
aI8
aI75
aI12
aI14
aI11
aI18
aI23
aI27
aI30
aI32
aI16
aI35
aI57
atRp265
sS'/usr/local/Cellar/python@2/2.7.15_1/Frameworks/Python.framework/Versions/2.7/lib/python2.7/ctypes/macholib/__init__.py'
p266
g2
((lp267
I9
aI7
atRp268
sS'<attrs generated hash e7d92bc555cf112d42f0b7b5f4f6df3908f9141a>'
p269
g2
((lp270
I1
atRp271
sS'/usr/local/lib/python2.7/site-packages/more_itertools/more.py'
p272
g2
((lp273
I1024
aI1
aI3
aI4
aI5
aI6
aI19
aI20
aI21
aI22
aI1113
aI24
aI26
aI27
aI540
aI29
aI32
aI33
aI34
aI35
aI36
aI37
aI38
aI39
aI40
aI1577
aI42
aI43
aI44
aI45
aI46
aI47
aI48
aI49
aI50
aI51
aI52
aI53
aI1078
aI55
aI56
aI57
aI58
aI59
aI60
aI61
aI62
aI63
aI64
aI65
aI66
aI67
aI68
aI69
aI70
aI71
aI72
aI73
aI74
aI75
aI76
aI77
aI78
aI79
aI80
aI81
aI82
aI83
aI86
aI89
aI612
aI2152
aI113
aI1141
aI1045
aI645
aI23
aI143
aI1560
aI1695
aI1184
aI169
aI1713
aI697
aI1217
aI1750
aI729
aI730
aI736
aI226
aI227
aI231
aI234
aI749
aI241
aI245
aI41
aI1788
aI261
aI775
aI782
aI1816
aI1817
aI1822
aI1825
aI1314
aI1828
aI1832
aI298
aI300
aI825
aI54
aI326
aI839
aI1353
aI339
aI855
aI1882
aI1884
aI1889
aI2107
aI292
aI1391
aI1906
aI1908
aI1911
aI1918
aI902
aI1516
aI397
aI1261
aI1936
aI1938
aI403
aI1942
aI1947
aI1452
aI1965
aI433
aI1975
aI1468
aI586
aI450
aI964
aI356
aI463
aI983
aI479
aI1004
aI2040
aI1892
aI1534
atRp274
sS'/usr/local/lib/python2.7/site-packages/py/_code/code.py'
p275
g2
((lp276
I1
aI2
aI3
aI5
aI513
aI9
aI12
aI14
aI17
aI18
aI19
aI536
aI30
aI33
aI36
aI7
aI48
aI56
aI62
aI578
aI76
aI78
aI80
aI598
aI87
aI603
aI604
aI94
aI610
aI105
aI618
aI622
aI623
aI114
aI628
aI631
aI122
aI637
aI638
aI640
aI645
aI137
aI138
aI140
aI141
aI143
aI147
aI661
aI662
aI151
aI155
aI668
aI670
aI159
aI673
aI162
aI676
aI677
aI679
aI168
aI173
aI686
aI175
aI177
aI188
aI192
aI708
aI713
aI714
aI119
aI719
aI216
aI729
aI218
aI732
aI736
aI737
aI740
aI232
aI246
aI248
aI762
aI251
aI254
aI255
aI257
aI774
aI268
aI781
aI728
aI289
aI295
aI307
aI317
aI568
aI341
aI342
aI344
aI347
aI348
aI349
aI370
aI374
aI390
aI394
aI400
aI401
aI667
aI422
aI427
aI433
aI434
aI436
aI437
aI439
aI440
aI448
aI463
aI760
aI469
aI472
aI479
aI501
atRp277
sS'/usr/local/Cellar/python@2/2.7.15_1/Frameworks/Python.framework/Versions/2.7/lib/python2.7/UserDict.py'
p278
g2
((lp279
I5
aI8
aI9
aI10
aI12
aI14
aI21
aI22
aI23
aI25
aI92
aI93
aI36
aI37
aI104
atRp280
sS'<attrs generated init e4e07013de18f7483a7b878bce2cd22feb18a4ae>'
p281
g2
((lp282
I1
atRp283
sS'/usr/local/Cellar/python@2/2.7.15_1/Frameworks/Python.framework/Versions/2.7/lib/python2.7/posixpath.py'
p284
g2
((lp285
I256
aI257
aI259
aI260
aI264
aI272
aI273
aI54
aI66
aI67
aI68
aI70
aI73
aI74
aI332
aI333
aI335
aI338
aI339
aI341
aI342
aI343
aI344
aI345
aI346
aI348
aI351
aI352
aI353
aI354
aI355
aI360
aI366
aI114
aI115
aI254
aI122
aI123
aI124
aI125
aI126
atRp286
sS'<attrs generated hash 678cde881c73f3d5c08cea5f8ed032f6438c21bb>'
p287
g2
((lp288
I1
atRp289
sS'<attrs generated eq 9ca99882f664fc2e90451dc3f84bae5f1d4151a5>'
p290
g2
((lp291
I1
atRp292
sS'/usr/local/lib/python2.7/site-packages/figleaf-0.6.1-py2.7.egg/figleaf/internals.py'
p293
g2
((lp294
I98
aI99
atRp295
sS'/usr/local/lib/python2.7/site-packages/py/_version.py'
p296
g2
((lp297
I4
atRp298
sS'/usr/local/lib/python2.7/site-packages/attr/_funcs.py'
p299
g2
((lp300
I1
aI3
aI5
aI6
aI7
aI265
aI12
aI13
aI14
aI15
aI85
aI215
aI227
aI118
aI119
aI120
aI121
atRp301
sS'/usr/local/Cellar/python@2/2.7.15_1/Frameworks/Python.framework/Versions/2.7/lib/python2.7/unittest/util.py'
p302
g2
((lp303
I1
aI2
aI5
aI135
aI8
aI142
aI18
aI21
aI98
aI100
aI7
aI62
atRp304
sS'/usr/local/Cellar/python@2/2.7.15_1/Frameworks/Python.framework/Versions/2.7/lib/python2.7/unittest/result.py'
p305
g2
((lp306
I1
aI130
aI3
aI4
aI5
aI134
aI7
aI9
aI10
aI139
aI12
aI14
aI15
aI144
aI20
aI22
aI23
aI152
aI26
aI36
aI37
aI38
aI39
aI40
aI180
aI183
aI56
aI59
aI190
aI65
aI73
aI79
aI84
aI105
aI111
aI119
aI148
aI126
atRp307
sS'<attrs generated eq 83d2edee681e4337fb4d1126047ced8d76062497>'
p308
g2
((lp309
I1
atRp310
sS'/usr/local/lib/python2.7/site-packages/_pytest/_code/code.py'
p311
g2
((lp312
I512
aI1
aI2
aI3
aI4
aI5
aI6
aI8
aI9
aI10
aI11
aI12
aI13
aI14
aI15
aI16
aI530
aI1027
aI20
aI23
aI536
aI538
aI27
aI540
aI29
aI542
aI543
aI544
aI545
aI547
aI1024
aI40
aI43
aI45
aI48
aI562
aI854
aI568
aI571
aI64
aI578
aI73
aI81
aI602
aI96
aI98
aI100
aI614
aI107
aI18
aI531
aI116
aI532
aI127
aI640
aI136
aI535
aI141
aI144
aI26
aI159
aI160
aI393
aI162
aI163
aI165
aI170
aI684
aI174
aI541
aI180
aI184
aI187
aI702
aI193
aI198
aI201
aI203
aI207
aI739
aI233
aI235
aI298
aI257
aI386
aI271
aI274
aI277
aI790
aI791
aI280
aI282
aI284
aI797
aI805
aI809
aI810
aI813
aI816
aI822
aI823
aI831
aI539
aI324
aI840
aI841
aI330
aI846
aI851
aI852
aI342
aI859
aI517
aI352
aI878
aI879
aI885
aI886
aI888
aI891
aI381
aI382
aI895
aI896
aI898
aI389
aI391
aI905
aI396
aI927
aI931
aI932
aI422
aI937
aI948
aI949
aI438
aI952
aI442
aI957
aI958
aI961
aI450
aI451
aI452
aI453
aI454
aI455
aI456
aI674
aI419
aI980
aI507
aI997
aI1005
aI1019
aI1021
aI1022
aI1023
atRp313
sS'/usr/local/Cellar/python@2/2.7.15_1/Frameworks/Python.framework/Versions/2.7/lib/python2.7/ctypes/util.py'
p314
g2
((lp315
I1
aI2
aI3
aI6
aI73
aI74
aI75
aI76
aI77
aI78
aI79
aI80
aI81
aI82
aI83
aI84
aI279
aI307
aI63
atRp316
sS'/usr/local/Cellar/python@2/2.7.15_1/Frameworks/Python.framework/Versions/2.7/lib/python2.7/abc.py'
p317
g2
((lp318
I151
aI152
aI154
aI156
aI157
aI158
aI32
aI161
aI162
aI170
aI174
aI175
aI176
aI177
aI179
aI180
aI184
aI185
aI33
aI87
aI89
aI90
aI91
aI92
aI93
aI94
aI95
aI96
aI97
aI99
aI100
aI101
aI102
aI103
aI107
aI109
aI113
aI116
aI117
atRp319
sS'/usr/local/Cellar/python@2/2.7.15_1/Frameworks/Python.framework/Versions/2.7/lib/python2.7/ntpath.py'
p320
g2
((lp321
I213
aI6
aI8
aI9
aI10
aI11
aI12
aI14
aI15
aI17
aI18
aI19
aI20
aI21
aI22
aI25
aI26
aI27
aI28
aI29
aI542
aI31
aI32
aI34
aI547
aI548
aI37
aI550
aI43
aI56
aI63
aI327
aI96
aI138
aI415
aI174
aI285
aI30
aI199
aI201
aI206
aI468
aI469
aI471
aI472
aI220
aI227
aI232
aI498
aI500
aI503
aI249
aI511
atRp322
sS'/usr/local/lib/python2.7/site-packages/_pytest/warning_types.py'
p323
g2
((lp324
I1
aI4
aI9
aI12
aI17
aI20
aI25
aI28
aI34
aI36
aI38
aI39
aI40
aI45
aI46
aI50
aI52
aI53
aI55
aI57
aI60
atRp325
sS'<attrs generated init 27784d5fe28212232c05cfd5e99939c86e28f6b3>'
p326
g2
((lp327
I1
aI2
aI3
aI4
aI5
aI6
aI7
atRp328
sS'<attrs generated init 1712966da775d03255f93aa023a4fb82294e9766>'
p329
g2
((lp330
I1
atRp331
sS'/usr/local/Cellar/python@2/2.7.15_1/Frameworks/Python.framework/Versions/2.7/lib/python2.7/threading.py'
p332
g2
((lp333
I108
atRp334
sS'/usr/local/Cellar/python@2/2.7.15_1/Frameworks/Python.framework/Versions/2.7/lib/python2.7/unittest/__init__.py'
p335
g2
((lp336
I64
aI65
aI66
aI69
aI45
aI47
aI48
aI49
aI50
aI51
aI54
aI56
aI58
aI59
aI61
aI62
atRp337
sS'<attrs generated init 44c4e690bacdffc75635561d86e7fd94fba51458>'
p338
g2
((lp339
I1
atRp340
sS'<attrs generated eq a811577e60d2eaaa10211eb41e0a6fedb52abe68>'
p341
g2
((lp342
I1
atRp343
sS'/usr/local/lib/python2.7/site-packages/_pytest/__init__.py'
p344
g2
((lp345
I1
aI3
aI4
atRp346
sS'<attrs generated eq fb4841184fb26533fbf9786763245f58510a261d>'
p347
g2
((lp348
I1
atRp349
sS'/usr/local/lib/python2.7/site-packages/_pytest/outcomes.py'
p350
g2
((lp351
I4
aI5
aI134
aI9
aI12
aI14
aI19
aI27
aI30
aI33
aI36
aI6
aI38
aI43
aI44
aI46
aI49
aI50
aI52
aI137
aI61
aI72
aI75
aI98
aI101
aI113
aI116
aI117
aI120
atRp352
sS'/usr/local/lib/python2.7/site-packages/attr/converters.py'
p353
g2
((lp354
I3
aI5
aI7
aI10
aI21
aI22
aI23
aI26
aI29
atRp355
sS'/usr/local/lib/python2.7/site-packages/py/_error.py'
p356
g2
((lp357
I4
aI5
aI6
aI8
aI9
aI17
aI23
aI24
aI25
aI26
aI27
aI28
aI29
aI30
aI31
aI32
aI35
aI39
aI40
aI41
aI43
aI51
aI62
aI90
aI91
atRp358
sS'/usr/local/lib/python2.7/site-packages/_pytest/_code/_py2traceback.py'
p359
g2
((lp360
I5
aI6
aI71
aI10
aI7
aI81
atRp361
sS'/usr/local/Cellar/python@2/2.7.15_1/Frameworks/Python.framework/Versions/2.7/lib/python2.7/unittest/case.py'
p362
g2
((lp363
I1
aI1026
aI515
aI4
aI5
aI6
aI7
aI8
aI9
aI10
aI1035
aI12
aI525
aI1039
aI19
aI22
aI1049
aI31
aI32
aI34
aI1061
aI39
aI1065
aI1069
aI48
aI1073
aI51
aI564
aI54
aI70
aI78
aI13
aI87
aI600
aI601
aI602
aI603
aI604
aI608
aI609
aI98
aI99
aI101
aI614
aI616
aI617
aI106
aI619
aI620
aI109
aI622
aI624
aI1043
aI618
aI131
aI1046
aI621
aI25
aI1028
aI162
aI164
aI166
aI168
aI172
aI176
aI178
aI1058
aI208
aI41
aI727
aI733
aI223
aI231
aI745
aI235
aI239
aI243
aI756
aI247
aI250
aI253
aI264
aI267
aI45
aI273
aI276
aI279
aI282
aI286
aI799
aI806
aI295
aI813
aI904
aI820
aI826
aI838
aI864
aI376
aI392
aI395
aI404
aI408
aI412
aI927
aI418
aI933
aI424
aI939
aI945
aI951
aI957
aI446
aI963
aI49
aI970
aI977
aI475
aI3
aI996
aI1005
aI501
aI1019
aI508
atRp364
sS'/usr/local/Cellar/python@2/2.7.15_1/Frameworks/Python.framework/Versions/2.7/lib/python2.7/ctypes/__init__.py'
p365
g2
((lp366
I1
aI3
aI5
aI7
aI8
aI9
aI10
aI11
aI12
aI14
aI16
aI19
aI22
aI23
aI29
aI32
aI49
aI67
aI74
aI75
aI91
aI92
aI94
aI96
aI98
aI99
aI100
aI101
aI102
aI103
aI104
aI105
aI106
aI108
aI137
aI138
aI140
aI141
aI142
aI144
aI147
aI148
aI150
aI151
aI152
aI156
aI157
aI158
aI163
aI165
aI166
aI167
aI169
aI170
aI171
aI173
aI174
aI175
aI177
aI178
aI179
aI181
aI186
aI187
aI188
aI190
aI191
aI192
aI194
aI195
aI196
aI198
aI199
aI200
aI202
aI203
aI204
aI207
aI209
aI210
aI223
aI224
aI225
aI228
aI230
aI231
aI232
aI233
aI235
aI236
aI237
aI238
aI240
aI241
aI242
aI248
aI250
aI252
aI253
aI254
aI255
aI257
aI258
aI260
aI262
aI263
aI264
aI265
aI268
aI270
aI271
aI276
aI278
aI279
aI283
aI286
aI288
aI289
aI291
aI292
aI294
aI313
aI323
aI329
aI342
aI343
aI344
aI346
aI347
aI348
aI350
aI351
aI352
aI353
aI354
aI355
aI356
aI357
aI360
aI361
aI362
aI363
aI365
aI366
aI370
aI376
aI377
aI379
aI380
aI381
aI383
aI384
aI385
aI386
aI387
aI389
aI393
aI394
aI396
aI429
aI430
aI431
aI433
aI440
aI443
aI446
aI447
aI449
aI451
aI454
aI457
aI474
aI477
aI478
aI479
aI486
aI489
aI492
aI494
aI495
aI496
aI497
aI498
aI499
aI501
aI502
aI505
aI506
aI512
aI513
aI517
aI518
aI525
aI541
aI544
aI545
aI546
aI547
aI548
aI549
aI550
aI551
aI552
aI553
aI554
aI556
atRp367
sS'/usr/local/lib/python2.7/site-packages/more_itertools/__init__.py'
p368
g2
((lp369
I1
aI2
atRp370
sS'<attrs generated eq d7864faa5086aa0708512d6f38bc5fee3329c044>'
p371
g2
((lp372
I1
atRp373
sS'/usr/local/Cellar/python@2/2.7.15_1/Frameworks/Python.framework/Versions/2.7/lib/python2.7/unittest/signals.py'
p374
g2
((lp375
I1
aI2
aI4
aI6
aI9
aI10
aI28
aI41
aI42
aI45
aI48
aI49
aI57
atRp376
sS'/usr/local/lib/python2.7/site-packages/funcsigs/__init__.py'
p377
g2
((lp378
I6
aI7
aI8
aI9
aI10
aI523
aI13
aI14
aI18
aI787
aI20
aI277
aI23
aI24
aI281
aI26
aI27
aI28
aI285
aI31
aI801
aI347
aI293
aI294
aI39
aI55
aI315
aI11
aI339
aI596
aI343
aI603
aI607
aI354
aI358
aI622
aI626
aI190
aI375
aI379
aI195
aI656
aI659
aI411
aI794
aI199
aI442
aI446
aI191
aI194
aI451
aI198
aI455
aI200
aI201
aI202
aI204
aI207
aI211
aI212
aI213
aI214
aI215
aI218
aI476
aI478
aI480
aI481
aI483
aI373
aI485
aI486
aI236
aI289
aI238
aI240
aI241
aI242
aI243
aI244
aI246
aI248
aI249
aI383
atRp379
sS'/usr/local/Cellar/python@2/2.7.15_1/Frameworks/Python.framework/Versions/2.7/lib/python2.7/difflib.py'
p380
g2
((lp381
I259
aI2052
aI2056
aI529
aI1811
aI1156
aI27
aI29
aI1054
aI31
aI33
aI34
aI35
aI37
aI39
aI44
aI1839
aI304
aI1860
aI1350
aI1351
aI584
aI1104
aI1106
aI856
aI858
aI1883
aI348
aI1632
aI1122
aI1894
aI1041
aI1641
aI882
aI1651
aI660
aI634
aI1668
aI1157
aI1670
aI152
aI1684
aI1941
aI1686
aI1687
aI1688
aI1689
aI1690
aI923
aI1692
aI1693
aI150
aI928
aI1709
aI1710
aI943
aI689
aI30
aI701
aI1733
aI458
aI1228
aI1314
aI1942
aI1145
aI1240
aI1241
aI1756
aI221
aI2018
aI2020
aI233
aI749
aI764
atRp382
sS'/usr/local/lib/python2.7/site-packages/py/_path/local.py'
p383
g2
((lp384
I3
aI4
aI6
aI7
aI8
aI9
aI10
aI523
aI13
aI15
aI19
aI21
aI22
aI537
aI29
aI548
aI37
aI552
aI46
aI49
aI52
aI565
aI56
aI57
aI575
aI11
aI71
aI586
aI75
aI590
aI79
aI594
aI597
aI601
aI92
aI98
aI613
aI104
aI106
aI109
aI110
aI111
aI113
aI114
aI115
aI628
aI125
aI638
aI128
aI131
aI134
aI138
aI148
aI151
aI152
aI156
aI282
aI158
aI160
aI163
aI177
aI180
aI183
aI186
aI706
aI199
aI462
aI726
aI804
aI220
aI242
aI25
aI770
aI772
aI781
aI786
aI794
aI795
aI284
aI285
aI287
aI288
aI289
aI290
aI292
aI805
aI295
aI296
aI297
aI310
aI312
aI314
aI315
aI316
aI317
aI319
aI322
aI352
aI363
aI368
aI371
aI381
aI382
aI405
aI409
aI413
aI958
aI448
aI961
aI453
aI967
aI974
aI468
aI477
aI991
aI486
aI507
atRp385
sS'/usr/local/Cellar/python@2/2.7.15_1/Frameworks/Python.framework/Versions/2.7/lib/python2.7/argparse.py'
p386
g2
((lp387
I1025
aI1027
aI1029
aI2055
aI1037
aI1038
aI1039
aI1054
aI1070
aI1073
aI62
aI64
aI66
aI67
aI68
aI69
aI70
aI71
aI72
aI73
aI74
aI75
aI76
aI77
aI78
aI79
aI80
aI81
aI85
aI86
aI87
aI88
aI89
aI90
aI92
aI95
aI1120
aI1122
aI99
aI101
aI1126
aI103
aI104
aI105
aI106
aI2156
aI112
aI119
aI1144
aI121
aI1153
aI130
aI133
aI1158
aI1160
aI137
aI1164
aI1166
aI147
aI152
aI1180
aI157
aI1182
aI188
aI192
aI197
aI199
aI2252
aI205
aI1234
aI1238
aI1244
aI1253
aI230
aI236
aI2287
aI242
aI2293
aI246
aI250
aI255
aI2316
aI273
aI2326
aI280
aI2332
aI1310
aI287
aI2337
aI1315
aI292
aI2342
aI1320
aI2350
aI2359
aI2364
aI1341
aI1344
aI2277
aI1384
aI1400
aI384
aI2112
aI1263
aI1439
aI1435
aI1448
aI1462
aI1469
aI1484
aI1486
aI480
aI1508
aI487
aI1513
aI1518
aI1520
aI1525
aI1176
aI1533
aI1109
aI1538
aI1554
aI1557
aI1558
aI1559
aI1560
aI1561
aI1562
aI1563
aI1564
aI1565
aI1566
aI1567
aI1568
aI557
aI573
aI592
aI605
aI1634
aI102
aI616
aI620
aI625
aI629
aI634
aI636
aI640
aI645
aI647
aI651
aI656
aI658
aI1687
aI1692
aI672
aI1700
aI1649
aI534
aI1707
aI685
aI690
aI692
aI696
aI705
aI706
aI707
aI714
aI1742
aI763
aI768
aI769
aI770
aI771
aI772
aI773
aI774
aI775
aI787
aI801
aI805
aI810
aI811
aI812
aI813
aI814
aI815
aI816
aI817
aI836
aI840
aI846
aI847
aI848
aI849
aI859
aI863
aI1680
aI868
aI869
aI870
aI880
aI1171
aI885
aI886
aI887
aI897
aI902
aI903
aI904
aI905
aI906
aI907
aI908
aI909
aI2200
aI928
aI934
aI156
aI940
aI941
aI942
aI943
aI158
aI954
aI960
aI1988
aI965
aI966
aI967
aI976
aI981
aI985
aI986
aI987
aI2017
aI995
aI2020
aI1000
aI1004
aI1005
aI1006
aI1007
aI2039
aI1016
atRp388
sS'/usr/local/lib/python2.7/site-packages/attr/__init__.py'
p389
g2
((lp390
I1
aI3
aI5
aI6
aI7
aI8
aI21
aI23
aI24
aI25
aI26
aI27
aI29
aI30
aI32
aI33
aI36
aI37
aI38
aI41
aI42
aI43
aI44
aI45
aI46
aI47
aI48
aI49
aI50
aI51
aI52
aI53
aI54
aI55
aI56
aI57
aI58
aI59
aI60
aI61
aI62
aI63
aI64
atRp391
sS'<attrs generated eq de97cbdc63a71368bd59325f109c097e725d7509>'
p392
g2
((lp393
I1
atRp394
sS'<attrs generated hash 4c25af4e7b257c923c84f6bf45a709c5074d9926>'
p395
g2
((lp396
I1
atRp397
sS'/usr/local/lib/python2.7/site-packages/scandir.py'
p398
g2
((lp399
I513
aI526
aI17
aI19
aI21
aI22
aI23
aI24
aI25
aI26
aI28
aI29
aI30
aI31
aI544
aI33
aI546
aI38
aI552
aI43
aI44
aI48
aI49
aI50
aI51
aI52
aI53
aI54
aI55
aI56
aI57
aI58
aI59
aI60
aI61
aI62
aI63
aI64
aI66
aI68
aI582
aI72
aI73
aI586
aI75
aI589
aI590
aI591
aI82
aI88
aI603
aI102
aI111
aI120
aI129
aI133
aI136
aI139
aI147
aI154
aI538
aI158
aI161
aI683
aI684
aI541
aI34
aI406
aI407
aI409
aI410
aI412
aI416
aI417
aI425
aI157
aI437
aI438
aI439
aI440
aI441
aI444
aI445
aI446
aI447
aI449
aI450
aI452
aI453
aI454
aI455
aI457
aI458
aI459
aI461
aI462
aI463
aI465
aI467
aI468
aI470
aI479
aI485
aI500
atRp400
sS'/usr/local/Cellar/python@2/2.7.15_1/Frameworks/Python.framework/Versions/2.7/lib/python2.7/genericpath.py'
p401
g2
((lp402
I36
aI37
aI38
aI39
aI40
atRp403
sS'/usr/local/lib/python2.7/site-packages/_pytest/assertion/util.py'
p404
g2
((lp405
I1
aI2
aI3
aI5
aI6
aI7
aI8
aI44
aI10
aI16
aI276
aI21
aI28
aI291
aI167
aI257
aI61
aI322
aI97
aI98
aI103
aI234
atRp406
sS'<attrs generated eq 5fed9d995365fcb89e23a10183dca2a13b0fe5c8>'
p407
g2
((lp408
I1
atRp409
sS'<attrs generated hash 07eeb15f57bfd99ed84eed207b4cba71f54cf707>'
p410
g2
((lp411
I1
atRp412
sS'<attrs generated init d7864faa5086aa0708512d6f38bc5fee3329c044>'
p413
g2
((lp414
I1
atRp415
sS'/usr/local/lib/python2.7/site-packages/attr/_compat.py'
p416
g2
((lp417
I1
aI3
aI4
aI5
aI6
aI9
aI10
aI13
aI16
aI18
aI21
aI22
aI26
aI30
aI32
aI33
aI36
aI39
aI41
aI47
aI53
aI59
aI65
aI71
aI77
aI83
aI85
aI87
aI88
aI89
aI90
aI107
aI111
aI113
aI116
aI133
aI140
aI144
aI150
aI151
aI153
aI154
aI155
aI160
aI163
atRp418
sS'/usr/local/lib/python2.7/site-packages/_pytest/pathlib.py'
p419
g2
((lp420
I2
aI3
aI4
aI5
aI6
aI7
aI8
aI9
aI10
aI11
aI12
aI13
aI14
aI15
aI144
aI274
aI195
aI21
aI24
aI26
aI29
aI31
aI34
aI168
aI220
aI43
aI49
aI185
aI59
aI67
aI78
aI84
aI214
aI92
aI94
aI263
aI16
aI103
aI232
aI18
aI240
aI123
atRp421
sS'/usr/local/lib/python2.7/site-packages/_pytest/config/__init__.py'
p422
g2
((lp423
I1
aI2
aI3
aI4
aI5
aI6
aI7
aI8
aI521
aI10
aI13
aI14
aI15
aI17
aI18
aI19
aI20
aI21
aI22
aI23
aI24
aI26
aI27
aI541
aI30
aI31
aI548
aI549
aI553
aI556
aI9
aI568
aI569
aI571
aI78
aI79
aI82
aI602
aI93
aI607
aI612
aI105
aI106
aI107
aI108
aI109
aI110
aI111
aI112
aI113
aI114
aI115
aI116
aI117
aI118
aI119
aI120
aI121
aI122
aI123
aI124
aI125
aI126
aI127
aI128
aI129
aI130
aI134
aI135
aI138
aI651
aI654
aI621
aI147
aI159
aI673
aI680
aI690
aI371
aI698
aI702
aI193
aI201
aI203
aI720
aI37
aI738
aI231
aI248
aI768
aI274
aI287
aI801
aI306
aI819
aI310
aI314
aI329
aI846
aI340
aI854
aI865
aI659
aI379
aI896
aI910
aI405
aI925
aI414
aI949
aI953
aI958
aI967
aI458
aI463
aI472
aI985
aI475
aI478
aI481
aI486
aI1007
aI1020
atRp424
sS'<attrs generated init 2f88b4efa2987cb0bc2825467ae581853b68e58f>'
p425
g2
((lp426
I1
aI2
aI3
aI4
aI5
aI6
aI7
atRp427
sS'<attrs generated init fb4841184fb26533fbf9786763245f58510a261d>'
p428
g2
((lp429
I1
atRp430
sS'<attrs generated hash ca2ef1c89a6346315d46e580b72cce5e687ecf21>'
p431
g2
((lp432
I1
atRp433
sS'<attrs generated hash cc4b13edca4b177fd341543b2441b92837341b8e>'
p434
g2
((lp435
I1
atRp436
sS'/usr/local/lib/python2.7/site-packages/py/_vendored_packages/__init__.py'
p437
g2
((lp438
I1
atRp439
sS'<attrs generated init 5fed9d995365fcb89e23a10183dca2a13b0fe5c8>'
p440
g2
((lp441
I1
atRp442
sS'/usr/local/Cellar/python@2/2.7.15_1/Frameworks/Python.framework/Versions/2.7/lib/python2.7/ast.py'
p443
g2
((lp444
I288
aI203
aI173
aI83
aI150
aI217
aI27
aI28
aI29
aI32
aI161
aI290
aI40
aI235
aI237
aI113
aI243
aI187
aI125
aI254
atRp445
sS'/usr/local/lib/python2.7/site-packages/_pytest/config/exceptions.py'
p446
g2
((lp447
I1
aI2
aI5
aI7
aI9
atRp448
sS'<attrs generated eq 8f19d8e518b09081eea4ef3b013e585a96b100ab>'
p449
g2
((lp450
I1
atRp451
sS'/usr/local/Cellar/python@2/2.7.15_1/Frameworks/Python.framework/Versions/2.7/lib/python2.7/weakref.py'
p452
g2
((lp453
I331
aI332
aI339
aI341
aI342
aI343
atRp454
sS'/usr/local/lib/python2.7/site-packages/_pytest/runner.py'
p455
g2
((lp456
I1
aI2
aI4
aI5
aI6
aI7
aI265
aI10
aI11
aI13
aI19
aI31
aI291
aI292
aI294
aI298
aI308
aI9
aI312
aI61
aI65
aI69
aI327
aI76
aI336
aI343
aI347
aI96
aI362
aI107
aI112
aI381
aI128
aI134
aI150
aI165
aI176
aI184
aI194
aI195
aI198
aI200
aI217
aI225
atRp457
sS'<attrs generated hash f6c65a6e64121ccdb2b86c94c4307d4d22c02927>'
p458
g2
((lp459
I1
atRp460
sS'/usr/local/Cellar/python@2/2.7.15_1/Frameworks/Python.framework/Versions/2.7/lib/python2.7/ctypes/macholib/framework.py'
p461
g2
((lp462
I64
aI3
aI5
aI7
aI9
aI17
aI19
aI39
aI40
aI41
aI42
aI44
atRp463
sS'/usr/local/Cellar/python@2/2.7.15_1/Frameworks/Python.framework/Versions/2.7/lib/python2.7/_weakrefset.py'
p464
g2
((lp465
I18
aI21
aI22
aI23
aI24
aI27
aI28
aI29
aI30
aI31
aI32
aI37
aI38
aI45
aI47
aI48
aI49
aI53
aI54
aI55
aI59
aI60
aI61
aI62
aI65
aI71
aI72
aI75
aI84
aI86
atRp466
sS'/usr/local/Cellar/python@2/2.7.15_1/Frameworks/Python.framework/Versions/2.7/lib/python2.7/stat.py'
p467
g2
((lp468
I25
aI50
atRp469
sS'/usr/local/Cellar/python@2/2.7.15_1/Frameworks/Python.framework/Versions/2.7/lib/python2.7/_abcoll.py'
p470
g2
((lp471
I100
aI103
aI554
aI557
aI558
aI559
aI562
aI573
atRp472
sS'<attrs generated eq f2289920a32468874a09335bf0a6f229fc0c0bd4>'
p473
g2
((lp474
I1
atRp475
sS'/usr/local/lib/python2.7/site-packages/enum/__init__.py'
p476
g2
((lp477
I1
aI3
aI5
aI7
aI9
aI11
aI12
aI20
aI21
aI25
aI26
aI32
aI33
aI38
aI46
aI47
aI48
aI50
aI55
aI58
aI62
aI65
aI70
aI72
aI73
aI74
aI75
aI78
aI80
aI81
aI86
aI94
aI100
aI101
aI102
aI103
aI105
aI121
aI123
aI125
aI128
aI129
aI130
aI133
aI138
aI144
aI147
aI148
aI149
aI153
aI158
aI159
aI160
aI161
aI162
aI164
aI165
aI166
aI169
aI170
aI174
aI175
aI176
aI177
aI178
aI191
aI192
aI198
aI200
aI201
aI202
aI203
aI206
aI209
aI215
aI216
aI217
aI271
aI272
aI273
aI275
aI276
aI283
aI284
aI285
aI286
aI287
aI288
aI290
aI295
aI300
aI302
aI303
aI310
aI312
aI316
aI319
aI321
aI322
aI324
aI330
aI351
aI354
aI362
aI366
aI376
aI385
aI386
aI392
aI395
aI398
aI401
aI404
aI406
aI409
aI417
aI418
aI420
aI422
aI483
aI491
aI492
aI498
aI499
aI500
aI501
aI505
aI511
aI512
aI513
aI527
aI529
aI530
aI542
aI543
aI544
aI546
aI547
aI548
aI551
aI554
aI555
aI556
aI557
aI558
aI559
aI560
aI561
aI562
aI563
aI564
aI566
aI569
aI571
aI572
aI573
aI574
aI581
aI584
aI586
aI641
aI642
aI644
aI663
aI664
aI666
aI669
aI670
aI672
aI674
aI675
aI677
aI689
aI703
aI704
aI710
aI724
aI726
aI727
aI729
aI731
aI732
aI734
aI736
aI737
aI739
aI741
aI742
aI745
aI749
aI750
aI752
aI756
aI757
aI759
aI761
aI762
aI764
aI766
aI767
aI776
aI779
aI780
aI782
aI785
aI786
aI788
aI789
aI809
aI810
aI812
aI813
aI818
aI819
aI821
aI824
atRp478
sS'/usr/local/Cellar/python@2/2.7.15_1/Frameworks/Python.framework/Versions/2.7/lib/python2.7/functools.py'
p479
g2
((lp480
I32
aI33
aI34
aI35
aI37
aI50
aI51
atRp481
sS'/usr/local/Cellar/python@2/2.7.15_1/Frameworks/Python.framework/Versions/2.7/lib/python2.7/unittest/runner.py'
p482
g2
((lp483
I128
aI1
aI3
aI4
aI6
aI7
aI9
aI12
aI13
aI14
aI17
aI22
aI28
aI32
aI33
aI34
aI36
aI43
aI50
aI137
aI57
aI65
aI73
aI81
aI89
aI97
aI105
aI111
aI140
aI119
aI124
aI125
aI127
atRp484
sS'/usr/local/lib/python2.7/site-packages/py/_path/__init__.py'
p485
g2
((lp486
I1
atRp487
sS'/usr/local/lib/python2.7/site-packages/_pytest/reports.py'
p488
g2
((lp489
I1
aI2
aI5
aI24
aI20
aI21
aI152
aI160
aI161
aI162
aI164
aI40
aI170
aI171
aI45
aI179
aI183
aI59
aI191
aI192
aI195
aI69
aI79
aI89
aI90
aI91
aI93
aI98
aI101
aI111
aI112
aI113
atRp490
sS'/usr/local/lib/python2.7/site-packages/_pytest/assertion/truncate.py'
p491
g2
((lp492
I6
aI7
aI8
aI10
aI13
aI14
aI15
aI80
aI18
aI27
aI35
aI41
atRp493
sS'/usr/local/Cellar/python@2/2.7.15_1/Frameworks/Python.framework/Versions/2.7/lib/python2.7/cmd.py'
p494
g2
((lp495
I68
aI154
aI285
aI161
aI290
aI165
aI296
aI169
aI176
aI46
aI48
aI50
aI52
aI53
aI55
aI66
aI67
aI196
aI69
aI70
aI71
aI72
aI73
aI74
aI75
aI76
aI77
aI79
aI342
aI350
aI223
aI102
aI233
aI242
aI251
aI255
atRp496
sS'<attrs generated eq e4e07013de18f7483a7b878bce2cd22feb18a4ae>'
p497
g2
((lp498
I1
atRp499
sS'<attrs generated eq a9dc62c45b46fbbefc1452e7034540b701b67bb1>'
p500
g2
((lp501
I1
atRp502
sS'/usr/local/Cellar/python@2/2.7.15_1/Frameworks/Python.framework/Versions/2.7/lib/python2.7/re.py'
p503
g2
((lp504
I260
aI261
aI262
aI141
aI194
aI232
aI233
aI234
aI235
aI236
aI237
aI238
aI239
aI240
aI241
aI242
aI246
aI248
aI249
aI252
aI253
aI254
aI255
atRp505
sS'/usr/local/lib/python2.7/site-packages/atomicwrites/__init__.py'
p506
g2
((lp507
I1
aI2
aI3
aI4
aI5
aI7
aI8
aI12
aI15
aI145
aI20
aI151
aI26
aI29
aI32
aI33
aI34
aI40
aI48
aI52
aI181
aI187
aI194
aI199
aI85
aI96
aI17
aI108
aI168
aI124
aI126
atRp508
sS'/usr/local/lib/python2.7/site-packages/_pytest/mark/__init__.py'
p509
g2
((lp510
I1
aI2
aI3
aI4
aI87
aI15
aI18
aI131
aI20
aI149
aI22
aI23
aI154
aI27
aI168
aI107
aI47
aI104
aI19
aI21
atRp511
sS'/usr/local/Cellar/python@2/2.7.15_1/Frameworks/Python.framework/Versions/2.7/lib/python2.7/unittest/suite.py'
p512
g2
((lp513
I1
aI3
aI5
aI6
aI257
aI264
aI267
aI270
aI16
aI273
aI18
aI19
aI276
aI302
aI23
aI26
aI284
aI287
aI290
aI35
aI262
aI40
aI299
aI300
aI301
aI46
aI303
aI8
aI56
aI62
aI11
aI69
aI72
aI78
aI86
aI88
aI118
aI125
aI279
aI157
aI165
aI31
aI192
aI200
aI37
aI225
aI252
atRp514
sS'/usr/local/Cellar/python@2/2.7.15_1/Frameworks/Python.framework/Versions/2.7/lib/python2.7/platform.py'
p515
g2
((lp516
I1418
aI1419
aI1424
aI1425
aI1426
aI1428
aI1429
aI1431
aI1433
aI1439
aI1440
aI1445
aI1446
aI1447
aI1460
aI1367
aI1368
aI1371
aI1372
aI1376
aI1393
aI1406
atRp517
sS'/usr/local/Cellar/python@2/2.7.15_1/Frameworks/Python.framework/Versions/2.7/lib/python2.7/shlex.py'
p518
g2
((lp519
I257
aI2
aI65
aI12
aI10
aI11
aI268
aI14
aI15
aI120
aI274
aI19
aI21
aI22
aI23
aI88
aI281
aI79
aI265
aI248
aI59
atRp520
sS'/usr/local/Cellar/python@2/2.7.15_1/Frameworks/Python.framework/Versions/2.7/lib/python2.7/uuid.py'
p521
g2
((lp522
I512
aI518
aI523
aI525
aI553
aI555
aI45
aI47
aI49
aI52
aI53
aI55
aI590
aI596
aI600
aI608
aI609
aI610
aI611
aI101
aI103
aI104
aI130
aI132
aI133
aI134
aI135
aI137
aI138
aI144
aI148
aI168
aI169
aI171
aI180
aI182
aI187
aI190
aI193
aI196
aI199
aI204
aI210
aI212
aI217
aI219
aI223
aI225
aI228
aI230
aI233
aI235
aI238
aI240
aI243
aI245
aI248
aI250
aI254
aI256
aI260
aI262
aI265
aI267
aI270
aI272
aI275
aI277
aI287
aI289
aI294
aI296
aI314
aI339
aI348
aI372
aI377
aI403
aI425
aI457
aI458
aI459
aI460
aI464
aI465
aI466
aI467
aI468
aI469
aI472
aI473
aI474
aI475
aI484
aI485
aI486
aI487
aI497
aI498
aI499
aI500
aI501
aI502
aI506
atRp523
sS'<attrs generated eq 7fa391520e2e52d4103c11603e76f86aa306477c>'
p524
g2
((lp525
I1
atRp526
sS'/usr/local/Cellar/python@2/2.7.15_1/Frameworks/Python.framework/Versions/2.7/lib/python2.7/contextlib.py'
p527
g2
((lp528
I82
aI85
atRp529
sS'/usr/local/lib/python2.7/site-packages/py/_code/_py2traceback.py'
p530
g2
((lp531
I5
aI71
aI7
aI62
atRp532
sS'<attrs generated eq 6222550a7a9c66f5ce5d026b19f3b2c56474acca>'
p533
g2
((lp534
I1
atRp535
sS'/usr/local/Cellar/python@2/2.7.15_1/Frameworks/Python.framework/Versions/2.7/lib/python2.7/decimal.py'
p536
g2
((lp537
I6156
aI4113
aI6166
aI4121
aI4134
aI4147
aI6207
aI6208
aI6209
aI6210
aI6211
aI6212
aI6215
aI6219
aI4184
aI116
aI120
aI123
aI2172
aI4221
aI126
aI127
aI130
aI131
aI134
aI137
aI139
aI140
aI142
aI143
aI144
aI4244
aI149
aI150
aI151
aI152
aI153
aI154
aI155
aI156
aI160
aI4265
aI178
aI179
aI183
aI372
aI4289
aI195
aI4312
aI217
aI218
aI224
aI4323
aI230
aI231
aI234
aI3795
aI245
aI247
aI4345
aI250
aI5845
aI256
aI258
aI261
aI4360
aI267
aI269
aI272
aI4376
aI282
aI284
aI293
aI295
aI298
aI4399
aI308
aI310
aI4414
aI319
aI321
aI4431
aI193
aI2388
aI341
aI343
aI2395
aI4447
aI359
aI3815
aI2420
aI4469
aI375
aI376
aI379
aI380
aI381
aI382
aI4160
aI4486
aI392
aI393
aI403
aI404
aI4508
aI3484
aI436
aI437
aI4536
aI2491
aI454
aI2506
aI461
aI463
aI3832
aI4562
aI1789
aI2540
aI4589
aI3837
aI505
aI506
aI508
aI4608
aI514
aI2563
aI537
aI4635
aI541
aI542
aI543
aI2592
aI549
aI550
aI552
aI553
aI554
aI5895
aI556
aI557
aI558
aI559
aI560
aI2609
aI562
aI563
aI565
aI4662
aI569
aI572
aI573
aI574
aI575
aI578
aI1803
aI580
aI582
aI583
aI584
aI585
aI586
aI440
aI4706
aI5566
aI4733
aI4750
aI661
aI2710
aI4767
aI1796
aI697
aI699
aI4799
aI2752
aI714
aI4819
aI1797
aI727
aI2786
aI4839
aI2795
aI2801
aI759
aI2809
aI2817
aI4874
aI2829
aI792
aI799
aI4898
aI1751
aI1800
aI5941
aI4948
aI3438
aI2902
aI863
aI2913
aI1851
aI2917
aI871
aI2924
aI879
aI5894
aI888
aI897
aI3852
aI906
aI915
aI1804
aI3850
aI5045
aI3005
aI3013
aI3021
aI3025
aI3029
aI986
aI3037
aI3041
aI3045
aI998
aI3049
aI5103
aI3057
aI579
aI3061
aI5111
aI3086
aI1050
aI5149
aI1059
aI1081
aI5183
aI3136
aI1102
aI5212
aI3166
aI4965
aI1124
aI5236
aI5255
aI3217
aI5285
aI2930
aI3247
aI1210
aI1212
aI3261
aI5317
aI3274
aI1234
aI3291
aI5340
aI3298
aI3315
aI5368
aI5376
aI3332
aI1289
aI1291
aI5406
aI3362
aI2611
aI5436
aI5438
aI5439
aI3392
aI5444
aI566
aI1350
aI5459
aI5462
aI3415
aI5466
aI1383
aI1390
aI1391
aI1393
aI5501
aI5502
aI5503
aI5504
aI5505
aI5514
aI3798
aI5699
aI5844
aI1429
aI1436
aI5535
aI5550
aI5558
aI1463
aI1470
aI3526
aI3530
aI934
aI4689
aI3563
aI5614
aI3588
aI1545
aI5648
aI1573
aI3627
aI1580
aI3630
aI3635
aI1590
aI3642
aI5692
aI5695
aI5696
aI5697
aI1603
aI1605
aI1607
aI1609
aI1611
aI1613
aI1616
aI1619
aI1626
aI5727
aI5729
aI1638
aI5766
aI3724
aI3743
aI3748
aI3753
aI3754
aI3756
aI3760
aI3763
aI3808
aI3780
aI3782
aI3783
aI3784
aI3785
aI3786
aI1740
aI3789
aI3790
aI3791
aI3792
aI3794
aI1747
aI3796
aI3797
aI5846
aI3799
aI3801
aI3802
aI3806
aI5855
aI1760
aI3809
aI3813
aI1767
aI3816
aI3820
aI1775
aI1782
aI5879
aI5880
aI5881
aI5882
aI5883
aI5884
aI5885
aI3844
aI5893
aI1798
aI1799
aI5896
aI1801
aI1802
aI5899
aI5900
aI5901
aI5902
aI1807
aI5920
aI5921
aI3874
aI3878
aI3885
aI5938
aI5940
aI3893
aI3895
aI3899
aI3903
aI5952
aI993
aI5964
aI5966
aI3922
aI5971
aI5972
aI5976
aI3939
aI3957
aI3978
aI1935
aI3999
aI4002
aI4013
aI6063
aI6096
aI4049
aI1226
aI6119
aI4084
aI5802
atRp538
sS'/usr/local/Cellar/python@2/2.7.15_1/Frameworks/Python.framework/Versions/2.7/lib/python2.7/collections.py'
p539
g2
((lp540
I56
aI59
aI60
aI61
aI63
aI64
aI65
aI66
aI67
aI68
aI69
aI331
aI332
aI333
aI334
aI335
aI346
aI347
aI349
aI352
aI355
aI358
aI359
aI360
aI363
aI365
aI368
aI369
aI370
aI371
aI372
aI373
aI374
aI375
aI376
aI378
aI383
aI384
aI385
aI386
aI389
aI395
aI396
aI400
atRp541
sS'/usr/local/lib/python2.7/site-packages/_pytest/mark/structures.py'
p542
g2
((lp543
I1
aI2
aI259
aI4
aI5
aI7
aI9
aI10
aI11
aI12
aI269
aI15
aI18
aI3
aI21
aI279
aI25
aI28
aI35
aI292
aI307
aI61
aI62
aI319
aI320
aI321
aI323
aI325
aI76
aI77
aI335
aI336
aI337
aI338
aI342
aI343
aI344
aI346
aI350
aI353
aI358
aI171
aI363
aI111
aI19
aI373
aI375
aI148
aI384
aI400
aI403
aI404
aI149
aI151
aI409
aI155
aI157
aI417
aI420
aI423
aI427
aI172
aI433
aI436
aI440
aI441
aI449
aI451
aI453
aI458
aI204
aI206
aI208
aI209
aI210
aI467
aI212
aI377
aI216
aI219
aI222
aI233
aI153
aI249
atRp544
sS'<attrs generated init 725c780712a7e2e5c7597d2999c264fa242a1398>'
p545
g2
((lp546
I1
atRp547
sS'/usr/local/lib/python2.7/site-packages/py/_builtin.py'
p548
g2
((lp549
I1
aI3
aI4
aI236
aI110
aI176
aI38
aI39
aI168
aI169
aI170
aI171
aI172
aI173
aI174
aI47
aI48
aI179
aI182
aI56
aI185
aI191
aI211
aI85
aI86
aI57
aI91
aI93
aI94
aI223
aI98
aI99
aI167
aI108
aI238
aI111
aI240
aI241
aI242
aI243
aI116
aI247
atRp550
sS'<attrs generated eq 42150654db18c62bebef11ab25a04e37596a05db>'
p551
g2
((lp552
I1
atRp553
sS'/usr/local/lib/python2.7/site-packages/_pytest/python_api.py'
p554
g2
((lp555
I1
aI2
aI3
aI4
aI5
aI7
aI8
aI9
aI11
aI13
aI14
aI16
aI17
aI19
aI22
aI286
aI288
aI547
aI36
aI48
aI52
aI55
aI56
aI58
aI66
aI69
aI74
aI76
aI79
aI336
aI82
aI339
aI85
aI342
aI697
aI345
aI92
aI199
aI80
aI701
aI104
aI114
aI531
aI116
aI120
aI121
aI123
aI139
aI154
aI111
aI158
aI160
aI165
aI171
aI175
aI185
aI700
aI189
aI191
aI707
aI711
aI204
aI207
aI219
aI222
aI224
aI225
aI227
aI254
aI341
atRp556
sS'/usr/local/lib/python2.7/site-packages/pluggy/hooks.py'
p557
g2
((lp558
I3
aI4
aI5
aI6
aI9
aI267
aI270
aI15
aI17
aI18
aI21
aI286
aI37
aI38
aI40
aI41
aI42
aI43
aI44
aI45
aI46
aI49
aI51
aI54
aI57
aI63
aI65
aI66
aI70
aI71
aI72
aI73
aI74
aI336
aI337
aI313
aI345
aI349
aI350
aI100
aI101
aI102
aI103
aI104
aI105
aI106
aI107
aI108
aI111
aI113
aI114
aI119
aI126
aI134
aI138
aI326
aI189
aI193
aI195
aI199
aI200
aI213
aI216
aI222
aI225
aI236
aI240
atRp559
sS'<attrs generated init 83d2edee681e4337fb4d1126047ced8d76062497>'
p560
g2
((lp561
I1
aI2
aI3
atRp562
sS'/usr/local/lib/python2.7/site-packages/pkg_resources/_vendor/six.py'
p563
g2
((lp564
I185
aI187
atRp565
sS'/usr/local/lib/python2.7/site-packages/_pytest/fixtures.py'
p566
g2
((lp567
I1024
aI1
aI1026
aI1027
aI4
aI5
aI6
aI7
aI9
aI10
aI1035
aI12
aI1037
aI14
aI16
aI17
aI18
aI3
aI516
aI541
aI35
aI36
aI1030
aI38
aI552
aI41
aI42
aI43
aI44
aI47
aI1086
aI181
aI1088
aI1089
aI66
aI67
aI68
aI69
aI70
aI71
aI974
aI74
aI75
aI1100
aI78
aI1103
aI1106
aI85
aI87
aI90
aI442
aI1120
aI1041
aI105
aI112
aI19
aI631
aI1150
aI1152
aI1153
aI1154
aI1156
aI645
aI1165
aI655
aI1180
aI671
aI675
aI677
aI679
aI170
aI1196
aI693
aI696
aI1209
aI700
aI458
aI703
aI706
aI707
aI710
aI714
aI213
aI729
aI730
aI732
aI738
aI229
aI1255
aI235
aI1284
aI1288
aI783
aI784
aI275
aI791
aI297
aI810
aI301
aI302
aI304
aI817
aI308
aI309
aI310
aI312
aI829
aI842
aI843
aI340
aI853
aI854
aI1367
aI346
aI348
aI523
aI1381
aI360
aI873
aI876
aI367
aI372
aI63
aI388
aI901
aI393
aI13
aI398
aI1091
aI405
aI926
aI415
aI420
aI1094
aI934
aI425
aI430
aI435
aI954
aI448
aI76
aI1038
aI462
aI975
aI976
aI469
aI982
aI986
aI987
aI988
aI1018
aI991
aI993
aI1002
aI1008
aI1009
aI1013
aI1015
aI506
aI1019
aI1020
aI1021
aI1022
aI1023
atRp568
sS'/usr/local/Cellar/python@2/2.7.15_1/Frameworks/Python.framework/Versions/2.7/lib/python2.7/numbers.py'
p569
g2
((lp570
I258
aI6
aI263
aI8
aI9
aI267
aI13
aI270
aI271
aI273
aI18
aI19
aI20
aI23
aI284
aI34
aI295
aI296
aI298
aI43
aI300
aI45
aI47
aI305
aI52
aI309
aI310
aI56
aI320
aI11
aI325
aI72
aI330
aI77
aI335
aI82
aI340
aI87
aI345
aI92
aI350
aI96
aI355
aI100
aI360
aI105
aI365
aI110
aI370
aI275
aI118
aI376
aI123
aI380
aI385
aI131
aI390
aI391
aI64
aI279
aI141
aI146
aI151
aI156
aI161
aI166
aI169
aI176
aI178
aI180
aI187
aI200
aI208
aI216
aI221
aI226
aI231
aI236
aI243
aI249
aI136
aI253
atRp571
s.